ccopy_reg
_reconstructor
p0
(cneat.genome
DefaultGenome
p1
c__builtin__
object
p2
Ntp3
Rp4
(dp5
S'connections'
p6
(dp7
(I-4
I364933
tp8
g0
(cneat.genes
DefaultConnectionGene
p9
g2
Ntp10
Rp11
(dp12
S'enabled'
p13
I01
sS'weight'
p14
F0.2095652603700098
sS'key'
p15
g8
sbs(I-11
I335593
tp16
g0
(g9
g2
Ntp17
Rp18
(dp19
g13
I01
sg14
F0.6671230096323882
sg15
g16
sbs(I-13
I3
tp20
g0
(g9
g2
Ntp21
Rp22
(dp23
g13
I01
sg14
F-27.522707172450833
sg15
g20
sbs(I0
I335593
tp24
g0
(g9
g2
Ntp25
Rp26
(dp27
g13
I01
sg14
F0.3507899191719901
sg15
g24
sbs(I-9
I334470
tp28
g0
(g9
g2
Ntp29
Rp30
(dp31
g13
I01
sg14
F-0.5035763937264041
sg15
g28
sbs(I364933
I335593
tp32
g0
(g9
g2
Ntp33
Rp34
(dp35
g13
I01
sg14
F0.8288578986006225
sg15
g32
sbs(I-13
I334470
tp36
g0
(g9
g2
Ntp37
Rp38
(dp39
g13
I00
sg14
F1.1276898218999776
sg15
g36
sbs(I-14
I2
tp40
g0
(g9
g2
Ntp41
Rp42
(dp43
g13
I01
sg14
F-19.069381154765583
sg15
g40
sbs(I-8
I334470
tp44
g0
(g9
g2
Ntp45
Rp46
(dp47
g13
I00
sg14
F-0.24321767231249597
sg15
g44
sbs(I-14
I350174
tp48
g0
(g9
g2
Ntp49
Rp50
(dp51
g13
I00
sg14
F3.79657446906295
sg15
g48
sbs(I-1
I334470
tp52
g0
(g9
g2
Ntp53
Rp54
(dp55
g13
I00
sg14
F-1.5222896134617367
sg15
g52
sbs(I-2
I354019
tp56
g0
(g9
g2
Ntp57
Rp58
(dp59
g13
I00
sg14
F-0.42222705797459054
sg15
g56
sbs(I-8
I366630
tp60
g0
(g9
g2
Ntp61
Rp62
(dp63
g13
I01
sg14
F-0.4105781190582363
sg15
g60
sbs(I0
I355524
tp64
g0
(g9
g2
Ntp65
Rp66
(dp67
g13
I01
sg14
F-0.8214949070052282
sg15
g64
sbs(I-16
I1
tp68
g0
(g9
g2
Ntp69
Rp70
(dp71
g13
I01
sg14
F-2.5880483247285535
sg15
g68
sbs(I-13
I1
tp72
g0
(g9
g2
Ntp73
Rp74
(dp75
g13
I00
sg14
F0.22499976172864095
sg15
g72
sbs(I-5
I3
tp76
g0
(g9
g2
Ntp77
Rp78
(dp79
g13
I01
sg14
F12.541280407202871
sg15
g76
sbs(I-14
I359331
tp80
g0
(g9
g2
Ntp81
Rp82
(dp83
g13
I00
sg14
F-0.8270949170779235
sg15
g80
sbs(I366630
I334470
tp84
g0
(g9
g2
Ntp85
Rp86
(dp87
g13
I01
sg14
F-2.511907504156861
sg15
g84
sbs(I-6
I2
tp88
g0
(g9
g2
Ntp89
Rp90
(dp91
g13
I01
sg14
F3.843490354903487
sg15
g88
sbs(I-1
I367025
tp92
g0
(g9
g2
Ntp93
Rp94
(dp95
g13
I01
sg14
F2.055746049445743
sg15
g92
sbs(I-6
I350174
tp96
g0
(g9
g2
Ntp97
Rp98
(dp99
g13
I01
sg14
F0.19674093944334692
sg15
g96
sbs(I-6
I0
tp100
g0
(g9
g2
Ntp101
Rp102
(dp103
g13
I01
sg14
F-2.584105635728782
sg15
g100
sbs(I-8
I0
tp104
g0
(g9
g2
Ntp105
Rp106
(dp107
g13
I01
sg14
F10.18109587998506
sg15
g104
sbssS'nodes'
p108
(dp109
I0
g0
(cneat.genes
DefaultNodeGene
p110
g2
Ntp111
Rp112
(dp113
S'activation'
p114
S'sigmoid'
p115
sS'bias'
p116
F-0.2200619249229973
sS'response'
p117
F1.0
sg15
I0
sS'aggregation'
p118
S'sum'
p119
sbsI1
g0
(g110
g2
Ntp120
Rp121
(dp122
g114
g115
sg116
F2.4087967786827678
sg117
F1.0
sg15
I1
sg118
g119
sbsI2
g0
(g110
g2
Ntp123
Rp124
(dp125
g114
g115
sg116
F1.6176564265167448
sg117
F1.0
sg15
I2
sg118
g119
sbsI3
g0
(g110
g2
Ntp126
Rp127
(dp128
g114
g115
sg116
F1.3968836960280933
sg117
F1.0
sg15
I3
sg118
g119
sbsI355524
g0
(g110
g2
Ntp129
Rp130
(dp131
g114
g115
sg116
F0.9704366065360877
sg117
F1.0
sg15
I355524
sg118
g119
sbsI334470
g0
(g110
g2
Ntp132
Rp133
(dp134
g114
g115
sg116
F0.23624510609700322
sg117
F1.0
sg15
I334470
sg118
g119
sbsI360934
g0
(g110
g2
Ntp135
Rp136
(dp137
g114
g115
sg116
F1.4623507145483783
sg117
F1.0
sg15
I360934
sg118
g119
sbsI335593
g0
(g110
g2
Ntp138
Rp139
(dp140
g114
g115
sg116
F0.560928300798978
sg117
F1.0
sg15
I335593
sg118
g119
sbsI351915
g0
(g110
g2
Ntp141
Rp142
(dp143
g114
g115
sg116
F3.296444007236194
sg117
F1.0
sg15
I351915
sg118
g119
sbsI367025
g0
(g110
g2
Ntp144
Rp145
(dp146
g114
g115
sg116
F0.5533365606545229
sg117
F1.0
sg15
I367025
sg118
g119
sbsI354019
g0
(g110
g2
Ntp147
Rp148
(dp149
g114
g115
sg116
F-0.5064806125094583
sg117
F1.0
sg15
I354019
sg118
g119
sbsI366630
g0
(g110
g2
Ntp150
Rp151
(dp152
g114
g115
sg116
F-1.7338739254396927
sg117
F1.0
sg15
I366630
sg118
g119
sbsI359331
g0
(g110
g2
Ntp153
Rp154
(dp155
g114
g115
sg116
F-2.0515746894839957
sg117
F1.0
sg15
I359331
sg118
g119
sbsI350174
g0
(g110
g2
Ntp156
Rp157
(dp158
g114
g115
sg116
F-0.02114415550468686
sg117
F1.0
sg15
I350174
sg118
g119
sbsI364933
g0
(g110
g2
Ntp159
Rp160
(dp161
g114
g115
sg116
F1.2895013391301673
sg117
F1.0
sg15
I364933
sg118
g119
sbssg15
I1822994
sS'fitness'
p162
cnumpy.core.multiarray
scalar
p163
(cnumpy
dtype
p164
(S'f8'
p165
I0
I1
tp166
Rp167
(I3
S'<'
p168
NNNI-1
I-1
I0
tp169
bS'T\xf0r\n^\x0e!@'
p170
tp171
Rp172
sb.