ccopy_reg
_reconstructor
p0
(cneat.genome
DefaultGenome
p1
c__builtin__
object
p2
Ntp3
Rp4
(dp5
S'connections'
p6
(dp7
(I-5
I1
tp8
g0
(cneat.genes
DefaultConnectionGene
p9
g2
Ntp10
Rp11
(dp12
S'enabled'
p13
I01
sS'weight'
p14
F-23.149118940054162
sS'key'
p15
g8
sbs(I-12
I364036
tp16
g0
(g9
g2
Ntp17
Rp18
(dp19
g13
I01
sg14
F-0.5145727478161841
sg15
g16
sbs(I-15
I0
tp20
g0
(g9
g2
Ntp21
Rp22
(dp23
g13
I01
sg14
F-0.7229525297370976
sg15
g20
sbs(I-6
I2
tp24
g0
(g9
g2
Ntp25
Rp26
(dp27
g13
I01
sg14
F12.584633480394878
sg15
g24
sbs(I-16
I1
tp28
g0
(g9
g2
Ntp29
Rp30
(dp31
g13
I01
sg14
F-10.452096662721003
sg15
g28
sbs(I-13
I3
tp32
g0
(g9
g2
Ntp33
Rp34
(dp35
g13
I01
sg14
F-6.524156845039599
sg15
g32
sbs(I-2
I2
tp36
g0
(g9
g2
Ntp37
Rp38
(dp39
g13
I00
sg14
F-2.941313544135125
sg15
g36
sbs(I-5
I2
tp40
g0
(g9
g2
Ntp41
Rp42
(dp43
g13
I01
sg14
F0.27765550208365886
sg15
g40
sbs(I-8
I0
tp44
g0
(g9
g2
Ntp45
Rp46
(dp47
g13
I01
sg14
F29.161478290021634
sg15
g44
sbs(I364036
I1
tp48
g0
(g9
g2
Ntp49
Rp50
(dp51
g13
I01
sg14
F-1.1781636045899035
sg15
g48
sbs(I-13
I1
tp52
g0
(g9
g2
Ntp53
Rp54
(dp55
g13
I01
sg14
F0.39013226755197067
sg15
g52
sbs(I-14
I1
tp56
g0
(g9
g2
Ntp57
Rp58
(dp59
g13
I01
sg14
F12.59159615551148
sg15
g56
sbssS'nodes'
p60
(dp61
I0
g0
(cneat.genes
DefaultNodeGene
p62
g2
Ntp63
Rp64
(dp65
S'activation'
p66
S'sigmoid'
p67
sS'bias'
p68
F-0.7504642129599496
sS'response'
p69
F1.0
sg15
I0
sS'aggregation'
p70
S'sum'
p71
sbsI1
g0
(g62
g2
Ntp72
Rp73
(dp74
g66
g67
sg68
F3.0789703918242703
sg69
F1.0
sg15
I1
sg70
g71
sbsI2
g0
(g62
g2
Ntp75
Rp76
(dp77
g66
g67
sg68
F-2.6379481540399987
sg69
F1.0
sg15
I2
sg70
g71
sbsI3
g0
(g62
g2
Ntp78
Rp79
(dp80
g66
g67
sg68
F2.170499729196794
sg69
F1.0
sg15
I3
sg70
g71
sbsI364036
g0
(g62
g2
Ntp81
Rp82
(dp83
g66
g67
sg68
F-1.0587512054798995
sg69
F1.0
sg15
I364036
sg70
g71
sbssg15
I1807771
sS'fitness'
p84
cnumpy.core.multiarray
scalar
p85
(cnumpy
dtype
p86
(S'f8'
p87
I0
I1
tp88
Rp89
(I3
S'<'
p90
NNNI-1
I-1
I0
tp91
bS':\x05/\xa7\xe0\x05#@'
p92
tp93
Rp94
sb.