ccopy_reg
_reconstructor
p0
(cneat.genome
DefaultGenome
p1
c__builtin__
object
p2
Ntp3
Rp4
(dp5
S'connections'
p6
(dp7
(I-16
I3
tp8
g0
(cneat.genes
DefaultConnectionGene
p9
g2
Ntp10
Rp11
(dp12
S'enabled'
p13
I01
sS'weight'
p14
F16.791198795926206
sS'key'
p15
g8
sbs(I-13
I3
tp16
g0
(g9
g2
Ntp17
Rp18
(dp19
g13
I01
sg14
F-1.3697596255075997
sg15
g16
sbs(I365834
I358658
tp20
g0
(g9
g2
Ntp21
Rp22
(dp23
g13
I01
sg14
F1.5328114665192096
sg15
g20
sbs(I366235
I358658
tp24
g0
(g9
g2
Ntp25
Rp26
(dp27
g13
I01
sg14
F2.3837426471203043
sg15
g24
sbs(I367515
I358658
tp28
g0
(g9
g2
Ntp29
Rp30
(dp31
g13
I01
sg14
F-1.7051341263559945
sg15
g28
sbs(I-12
I367515
tp32
g0
(g9
g2
Ntp33
Rp34
(dp35
g13
I01
sg14
F1.0624983609686054
sg15
g32
sbs(I358658
I354451
tp36
g0
(g9
g2
Ntp37
Rp38
(dp39
g13
I01
sg14
F1.1559589083612478
sg15
g36
sbs(I-9
I365834
tp40
g0
(g9
g2
Ntp41
Rp42
(dp43
g13
I01
sg14
F-3.082397871932674
sg15
g40
sbs(I-14
I2
tp44
g0
(g9
g2
Ntp45
Rp46
(dp47
g13
I01
sg14
F-19.112044399254437
sg15
g44
sbs(I-3
I358658
tp48
g0
(g9
g2
Ntp49
Rp50
(dp51
g13
I00
sg14
F-0.379053626921135
sg15
g48
sbs(I364274
I365834
tp52
g0
(g9
g2
Ntp53
Rp54
(dp55
g13
I01
sg14
F-1.1626298214595925
sg15
g52
sbs(I-6
I1
tp56
g0
(g9
g2
Ntp57
Rp58
(dp59
g13
I01
sg14
F-1.1923015879073051
sg15
g56
sbs(I-12
I358658
tp60
g0
(g9
g2
Ntp61
Rp62
(dp63
g13
I01
sg14
F3.048375971632526
sg15
g60
sbs(I-16
I343029
tp64
g0
(g9
g2
Ntp65
Rp66
(dp67
g13
I01
sg14
F-0.48794914445159504
sg15
g64
sbs(I-7
I353077
tp68
g0
(g9
g2
Ntp69
Rp70
(dp71
g13
I01
sg14
F-0.013430755283266316
sg15
g68
sbs(I-5
I3
tp72
g0
(g9
g2
Ntp73
Rp74
(dp75
g13
I01
sg14
F8.851159459417692
sg15
g72
sbs(I356805
I360515
tp76
g0
(g9
g2
Ntp77
Rp78
(dp79
g13
I01
sg14
F-2.420543741848953
sg15
g76
sbs(I364274
I358658
tp80
g0
(g9
g2
Ntp81
Rp82
(dp83
g13
I00
sg14
F2.1941107076042914
sg15
g80
sbs(I-6
I2
tp84
g0
(g9
g2
Ntp85
Rp86
(dp87
g13
I01
sg14
F12.134678881905653
sg15
g84
sbs(I-8
I0
tp88
g0
(g9
g2
Ntp89
Rp90
(dp91
g13
I01
sg14
F19.21635481797339
sg15
g88
sbs(I-3
I366235
tp92
g0
(g9
g2
Ntp93
Rp94
(dp95
g13
I01
sg14
F-1.1079701507950548
sg15
g92
sbssS'nodes'
p96
(dp97
I0
g0
(cneat.genes
DefaultNodeGene
p98
g2
Ntp99
Rp100
(dp101
S'activation'
p102
S'sigmoid'
p103
sS'bias'
p104
F2.9397208222147144
sS'response'
p105
F1.0
sg15
I0
sS'aggregation'
p106
S'sum'
p107
sbsI1
g0
(g98
g2
Ntp108
Rp109
(dp110
g102
g103
sg104
F6.613423144847241
sg105
F1.0
sg15
I1
sg106
g107
sbsI2
g0
(g98
g2
Ntp111
Rp112
(dp113
g102
g103
sg104
F-0.15353613656041049
sg105
F1.0
sg15
I2
sg106
g107
sbsI3
g0
(g98
g2
Ntp114
Rp115
(dp116
g102
g103
sg104
F-1.3541382443779946
sg105
F1.0
sg15
I3
sg106
g107
sbsI366235
g0
(g98
g2
Ntp117
Rp118
(dp119
g102
g103
sg104
F-0.7582952189483156
sg105
F1.0
sg15
I366235
sg106
g107
sbsI356805
g0
(g98
g2
Ntp120
Rp121
(dp122
g102
g103
sg104
F-0.7739709946715208
sg105
F1.0
sg15
I356805
sg106
g107
sbsI365834
g0
(g98
g2
Ntp123
Rp124
(dp125
g102
g103
sg104
F1.1736488007310548
sg105
F1.0
sg15
I365834
sg106
g107
sbsI360515
g0
(g98
g2
Ntp126
Rp127
(dp128
g102
g103
sg104
F-0.8701971912760471
sg105
F1.0
sg15
I360515
sg106
g107
sbsI358658
g0
(g98
g2
Ntp129
Rp130
(dp131
g102
g103
sg104
F-0.5193032589916897
sg105
F1.0
sg15
I358658
sg106
g107
sbsI364274
g0
(g98
g2
Ntp132
Rp133
(dp134
g102
g103
sg104
F-0.1518665511238327
sg105
F1.0
sg15
I364274
sg106
g107
sbsI354451
g0
(g98
g2
Ntp135
Rp136
(dp137
g102
g103
sg104
F-0.3478277345781973
sg105
F1.0
sg15
I354451
sg106
g107
sbsI362964
g0
(g98
g2
Ntp138
Rp139
(dp140
g102
g103
sg104
F0.6308880653415838
sg105
F1.0
sg15
I362964
sg106
g107
sbsI353077
g0
(g98
g2
Ntp141
Rp142
(dp143
g102
g103
sg104
F2.37461283264651
sg105
F1.0
sg15
I353077
sg106
g107
sbsI367515
g0
(g98
g2
Ntp144
Rp145
(dp146
g102
g103
sg104
F-0.10130471810533259
sg105
F1.0
sg15
I367515
sg106
g107
sbsI343029
g0
(g98
g2
Ntp147
Rp148
(dp149
g102
g103
sg104
F-0.23761540191002684
sg105
F1.0
sg15
I343029
sg106
g107
sbssg15
I1820954
sS'fitness'
p150
cnumpy.core.multiarray
scalar
p151
(cnumpy
dtype
p152
(S'f8'
p153
I0
I1
tp154
Rp155
(I3
S'<'
p156
NNNI-1
I-1
I0
tp157
bS'\xfb\xd0X\x1f\x1a\x0b @'
p158
tp159
Rp160
sb.