ccopy_reg
_reconstructor
p0
(cneat.genome
DefaultGenome
p1
c__builtin__
object
p2
Ntp3
Rp4
(dp5
S'connections'
p6
(dp7
(I364647
I3
tp8
g0
(cneat.genes
DefaultConnectionGene
p9
g2
Ntp10
Rp11
(dp12
S'enabled'
p13
I01
sS'weight'
p14
F-23.559211160840864
sS'key'
p15
g8
sbs(I366175
I360701
tp16
g0
(g9
g2
Ntp17
Rp18
(dp19
g13
I01
sg14
F0.1090347972093117
sg15
g16
sbs(I369008
I366175
tp20
g0
(g9
g2
Ntp21
Rp22
(dp23
g13
I01
sg14
F-1.2309973896173587
sg15
g20
sbs(I-14
I2
tp24
g0
(g9
g2
Ntp25
Rp26
(dp27
g13
I01
sg14
F-22.399238771845987
sg15
g24
sbs(I-13
I364647
tp28
g0
(g9
g2
Ntp29
Rp30
(dp31
g13
I01
sg14
F3.5746586808012415
sg15
g28
sbs(I-9
I360701
tp32
g0
(g9
g2
Ntp33
Rp34
(dp35
g13
I00
sg14
F-2.039150119874855
sg15
g32
sbs(I-6
I2
tp36
g0
(g9
g2
Ntp37
Rp38
(dp39
g13
I01
sg14
F20.431863514480767
sg15
g36
sbs(I-16
I1
tp40
g0
(g9
g2
Ntp41
Rp42
(dp43
g13
I01
sg14
F-21.51020696010411
sg15
g40
sbs(I-11
I366175
tp44
g0
(g9
g2
Ntp45
Rp46
(dp47
g13
I00
sg14
F0.18887866689991026
sg15
g44
sbs(I366887
I366175
tp48
g0
(g9
g2
Ntp49
Rp50
(dp51
g13
I00
sg14
F0.6758357696985556
sg15
g48
sbs(I-11
I369008
tp52
g0
(g9
g2
Ntp53
Rp54
(dp55
g13
I01
sg14
F1.0
sg15
g52
sbs(I2
I368514
tp56
g0
(g9
g2
Ntp57
Rp58
(dp59
g13
I01
sg14
F1.6086529646279037
sg15
g56
sbs(I-8
I0
tp60
g0
(g9
g2
Ntp61
Rp62
(dp63
g13
I01
sg14
F20.767656443202302
sg15
g60
sbs(I-5
I3
tp64
g0
(g9
g2
Ntp65
Rp66
(dp67
g13
I01
sg14
F14.561082010753097
sg15
g64
sbssS'nodes'
p68
(dp69
I0
g0
(cneat.genes
DefaultNodeGene
p70
g2
Ntp71
Rp72
(dp73
S'activation'
p74
S'sigmoid'
p75
sS'bias'
p76
F-2.8106275683817774
sS'response'
p77
F1.0
sg15
I0
sS'aggregation'
p78
S'sum'
p79
sbsI1
g0
(g70
g2
Ntp80
Rp81
(dp82
g74
g75
sg76
F4.612372063980358
sg77
F1.0
sg15
I1
sg78
g79
sbsI2
g0
(g70
g2
Ntp83
Rp84
(dp85
g74
g75
sg76
F-1.2997264221377993
sg77
F1.0
sg15
I2
sg78
g79
sbsI3
g0
(g70
g2
Ntp86
Rp87
(dp88
g74
g75
sg76
F-0.3551278877463367
sg77
F1.0
sg15
I3
sg78
g79
sbsI364647
g0
(g70
g2
Ntp89
Rp90
(dp91
g74
g75
sg76
F-0.5015161126115147
sg77
F1.0
sg15
I364647
sg78
g79
sbsI366887
g0
(g70
g2
Ntp92
Rp93
(dp94
g74
g75
sg76
F-3.197242239518261
sg77
F1.0
sg15
I366887
sg78
g79
sbsI368514
g0
(g70
g2
Ntp95
Rp96
(dp97
g74
g75
sg76
F0.8620516621363152
sg77
F1.0
sg15
I368514
sg78
g79
sbsI369008
g0
(g70
g2
Ntp98
Rp99
(dp100
g74
g75
sg76
F1.0988638905625876
sg77
F1.0
sg15
I369008
sg78
g79
sbsI360701
g0
(g70
g2
Ntp101
Rp102
(dp103
g74
g75
sg76
F-0.4585988477023725
sg77
F1.0
sg15
I360701
sg78
g79
sbsI366175
g0
(g70
g2
Ntp104
Rp105
(dp106
g74
g75
sg76
F0.07384502009249233
sg77
F1.0
sg15
I366175
sg78
g79
sbssg15
I1834475
sS'fitness'
p107
cnumpy.core.multiarray
scalar
p108
(cnumpy
dtype
p109
(S'f8'
p110
I0
I1
tp111
Rp112
(I3
S'<'
p113
NNNI-1
I-1
I0
tp114
bS'\xbc\x9c\x82\x97S\x10%@'
p115
tp116
Rp117
sb.