ccopy_reg
_reconstructor
p0
(cneat.genome
DefaultGenome
p1
c__builtin__
object
p2
Ntp3
Rp4
(dp5
S'connections'
p6
(dp7
(I-14
I2
tp8
g0
(cneat.genes
DefaultConnectionGene
p9
g2
Ntp10
Rp11
(dp12
S'enabled'
p13
I01
sS'weight'
p14
F-27.244311543510282
sS'key'
p15
g8
sbs(I-6
I2
tp16
g0
(g9
g2
Ntp17
Rp18
(dp19
g13
I01
sg14
F21.384088604742363
sg15
g16
sbs(I-16
I1
tp20
g0
(g9
g2
Ntp21
Rp22
(dp23
g13
I01
sg14
F-9.339740036903416
sg15
g20
sbs(I-5
I371057
tp24
g0
(g9
g2
Ntp25
Rp26
(dp27
g13
I01
sg14
F0.18011709103328594
sg15
g24
sbs(I-13
I3
tp28
g0
(g9
g2
Ntp29
Rp30
(dp31
g13
I01
sg14
F-5.128944019341451
sg15
g28
sbs(I-5
I2
tp32
g0
(g9
g2
Ntp33
Rp34
(dp35
g13
I00
sg14
F1.2595782413490206
sg15
g32
sbs(I-8
I0
tp36
g0
(g9
g2
Ntp37
Rp38
(dp39
g13
I01
sg14
F15.137604297217857
sg15
g36
sbs(I-12
I371057
tp40
g0
(g9
g2
Ntp41
Rp42
(dp43
g13
I01
sg14
F0.7232983549975044
sg15
g40
sbs(I-5
I3
tp44
g0
(g9
g2
Ntp45
Rp46
(dp47
g13
I01
sg14
F4.654438469969463
sg15
g44
sbs(I-7
I1
tp48
g0
(g9
g2
Ntp49
Rp50
(dp51
g13
I01
sg14
F-0.8717837048528752
sg15
g48
sbssS'nodes'
p52
(dp53
I0
g0
(cneat.genes
DefaultNodeGene
p54
g2
Ntp55
Rp56
(dp57
S'activation'
p58
S'sigmoid'
p59
sS'bias'
p60
F-0.04630358021379155
sS'response'
p61
F1.0
sg15
I0
sS'aggregation'
p62
S'sum'
p63
sbsI1
g0
(g54
g2
Ntp64
Rp65
(dp66
g58
g59
sg60
F1.6537485324357397
sg61
F1.0
sg15
I1
sg62
g63
sbsI2
g0
(g54
g2
Ntp67
Rp68
(dp69
g58
g59
sg60
F-1.124470423327419
sg61
F1.0
sg15
I2
sg62
g63
sbsI3
g0
(g54
g2
Ntp70
Rp71
(dp72
g58
g59
sg60
F0.7570506808976657
sg61
F1.0
sg15
I3
sg62
g63
sbsI371057
g0
(g54
g2
Ntp73
Rp74
(dp75
g58
g59
sg60
F-0.5731211109806218
sg61
F1.0
sg15
I371057
sg62
g63
sbssg15
I1841511
sS'fitness'
p76
cnumpy.core.multiarray
scalar
p77
(cnumpy
dtype
p78
(S'f8'
p79
I0
I1
tp80
Rp81
(I3
S'<'
p82
NNNI-1
I-1
I0
tp83
bS'\xa2\xb1>4\xd6\x07\x1e@'
p84
tp85
Rp86
sb.