ccopy_reg
_reconstructor
p0
(cneat.genome
DefaultGenome
p1
c__builtin__
object
p2
Ntp3
Rp4
(dp5
S'connections'
p6
(dp7
(I-13
I337736
tp8
g0
(cneat.genes
DefaultConnectionGene
p9
g2
Ntp10
Rp11
(dp12
S'enabled'
p13
I01
sS'weight'
p14
F0.8294717296457145
sS'key'
p15
g8
sbs(I-8
I337736
tp16
g0
(g9
g2
Ntp17
Rp18
(dp19
g13
I01
sg14
F-1.2648104338134631
sg15
g16
sbs(I-14
I2
tp20
g0
(g9
g2
Ntp21
Rp22
(dp23
g13
I01
sg14
F-19.788888574482936
sg15
g20
sbs(I-6
I2
tp24
g0
(g9
g2
Ntp25
Rp26
(dp27
g13
I01
sg14
F8.818700058724499
sg15
g24
sbs(I-16
I1
tp28
g0
(g9
g2
Ntp29
Rp30
(dp31
g13
I01
sg14
F-11.69731081840783
sg15
g28
sbs(I-5
I364071
tp32
g0
(g9
g2
Ntp33
Rp34
(dp35
g13
I01
sg14
F-0.6202466199732036
sg15
g32
sbs(I-5
I337736
tp36
g0
(g9
g2
Ntp37
Rp38
(dp39
g13
I00
sg14
F-0.7139912973554314
sg15
g36
sbs(I-8
I0
tp40
g0
(g9
g2
Ntp41
Rp42
(dp43
g13
I01
sg14
F22.278075338048644
sg15
g40
sbs(I364071
I337736
tp44
g0
(g9
g2
Ntp45
Rp46
(dp47
g13
I01
sg14
F3.862100458431428
sg15
g44
sbs(I-5
I3
tp48
g0
(g9
g2
Ntp49
Rp50
(dp51
g13
I01
sg14
F19.70545560833955
sg15
g48
sbssS'nodes'
p52
(dp53
I0
g0
(cneat.genes
DefaultNodeGene
p54
g2
Ntp55
Rp56
(dp57
S'activation'
p58
S'sigmoid'
p59
sS'bias'
p60
F-3.220736589346702
sS'response'
p61
F1.0
sg15
I0
sS'aggregation'
p62
S'sum'
p63
sbsI1
g0
(g54
g2
Ntp64
Rp65
(dp66
g58
g59
sg60
F6.225660626377427
sg61
F1.0
sg15
I1
sg62
g63
sbsI2
g0
(g54
g2
Ntp67
Rp68
(dp69
g58
g59
sg60
F-0.8997870052995537
sg61
F1.0
sg15
I2
sg62
g63
sbsI3
g0
(g54
g2
Ntp70
Rp71
(dp72
g58
g59
sg60
F0.937572385882981
sg61
F1.0
sg15
I3
sg62
g63
sbsI364071
g0
(g54
g2
Ntp73
Rp74
(dp75
g58
g59
sg60
F-1.3878907958354887
sg61
F1.0
sg15
I364071
sg62
g63
sbsI337736
g0
(g54
g2
Ntp76
Rp77
(dp78
g58
g59
sg60
F2.804957580526116
sg61
F1.0
sg15
I337736
sg62
g63
sbsI363839
g0
(g54
g2
Ntp79
Rp80
(dp81
g58
g59
sg60
F1.504857008891436
sg61
F1.0
sg15
I363839
sg62
g63
sbssg15
I1832931
sS'fitness'
p82
cnumpy.core.multiarray
scalar
p83
(cnumpy
dtype
p84
(S'f8'
p85
I0
I1
tp86
Rp87
(I3
S'<'
p88
NNNI-1
I-1
I0
tp89
bS'4\xd6\x87\xc6\xfa\x10\x1b@'
p90
tp91
Rp92
sb.