ccopy_reg
_reconstructor
p0
(cneat.genome
DefaultGenome
p1
c__builtin__
object
p2
Ntp3
Rp4
(dp5
S'connections'
p6
(dp7
(I368515
I2
tp8
g0
(cneat.genes
DefaultConnectionGene
p9
g2
Ntp10
Rp11
(dp12
S'enabled'
p13
I01
sS'weight'
p14
F0.277134534900722
sS'key'
p15
g8
sbs(I-4
I365141
tp16
g0
(g9
g2
Ntp17
Rp18
(dp19
g13
I01
sg14
F-1.7744774611289686
sg15
g16
sbs(I-13
I368515
tp20
g0
(g9
g2
Ntp21
Rp22
(dp23
g13
I00
sg14
F-0.10841163061564352
sg15
g20
sbs(I372861
I368515
tp24
g0
(g9
g2
Ntp25
Rp26
(dp27
g13
I01
sg14
F0.11809438366948549
sg15
g24
sbs(I2
I375578
tp28
g0
(g9
g2
Ntp29
Rp30
(dp31
g13
I01
sg14
F-1.670148021780162
sg15
g28
sbs(I-5
I1
tp32
g0
(g9
g2
Ntp33
Rp34
(dp35
g13
I01
sg14
F-2.1798234484525048
sg15
g32
sbs(I-9
I367345
tp36
g0
(g9
g2
Ntp37
Rp38
(dp39
g13
I01
sg14
F-2.5053460212124836
sg15
g36
sbs(I373097
I368515
tp40
g0
(g9
g2
Ntp41
Rp42
(dp43
g13
I01
sg14
F-0.9610359053825551
sg15
g40
sbs(I-13
I374510
tp44
g0
(g9
g2
Ntp45
Rp46
(dp47
g13
I00
sg14
F-0.9142695608990041
sg15
g44
sbs(I-10
I374510
tp48
g0
(g9
g2
Ntp49
Rp50
(dp51
g13
I01
sg14
F0.5236906837986507
sg15
g48
sbs(I367345
I371445
tp52
g0
(g9
g2
Ntp53
Rp54
(dp55
g13
I01
sg14
F0.3783740125869595
sg15
g52
sbs(I-3
I354690
tp56
g0
(g9
g2
Ntp57
Rp58
(dp59
g13
I00
sg14
F0.035689723404274676
sg15
g56
sbs(I-5
I0
tp60
g0
(g9
g2
Ntp61
Rp62
(dp63
g13
I01
sg14
F0.18679012263612751
sg15
g60
sbs(I3
I354690
tp64
g0
(g9
g2
Ntp65
Rp66
(dp67
g13
I01
sg14
F0.3816094764285929
sg15
g64
sbs(I372861
I373097
tp68
g0
(g9
g2
Ntp69
Rp70
(dp71
g13
I00
sg14
F-1.3997697966304146
sg15
g68
sbs(I-13
I367345
tp72
g0
(g9
g2
Ntp73
Rp74
(dp75
g13
I00
sg14
F1.298132191751606
sg15
g72
sbs(I-16
I1
tp76
g0
(g9
g2
Ntp77
Rp78
(dp79
g13
I01
sg14
F-2.132657176756768
sg15
g76
sbs(I-13
I375578
tp80
g0
(g9
g2
Ntp81
Rp82
(dp83
g13
I00
sg14
F-1.0473259393706629
sg15
g80
sbs(I371445
I354690
tp84
g0
(g9
g2
Ntp85
Rp86
(dp87
g13
I01
sg14
F1.8789023007466945
sg15
g84
sbs(I372861
I374272
tp88
g0
(g9
g2
Ntp89
Rp90
(dp91
g13
I01
sg14
F0.3237913996140461
sg15
g88
sbs(I-6
I354690
tp92
g0
(g9
g2
Ntp93
Rp94
(dp95
g13
I01
sg14
F-2.239569912260153
sg15
g92
sbs(I-9
I3
tp96
g0
(g9
g2
Ntp97
Rp98
(dp99
g13
I01
sg14
F6.65746042492454
sg15
g96
sbs(I-11
I367345
tp100
g0
(g9
g2
Ntp101
Rp102
(dp103
g13
I01
sg14
F-0.6527973018385609
sg15
g100
sbs(I-8
I0
tp104
g0
(g9
g2
Ntp105
Rp106
(dp107
g13
I01
sg14
F15.131835555131781
sg15
g104
sbssS'nodes'
p108
(dp109
I0
g0
(cneat.genes
DefaultNodeGene
p110
g2
Ntp111
Rp112
(dp113
S'activation'
p114
S'sigmoid'
p115
sS'bias'
p116
F2.7367463040263833
sS'response'
p117
F1.0
sg15
I0
sS'aggregation'
p118
S'sum'
p119
sbsI1
g0
(g110
g2
Ntp120
Rp121
(dp122
g114
g115
sg116
F7.81130465171681
sg117
F1.0
sg15
I1
sg118
g119
sbsI2
g0
(g110
g2
Ntp123
Rp124
(dp125
g114
g115
sg116
F-1.0468730593512379
sg117
F1.0
sg15
I2
sg118
g119
sbsI3
g0
(g110
g2
Ntp126
Rp127
(dp128
g114
g115
sg116
F0.5422728220401783
sg117
F1.0
sg15
I3
sg118
g119
sbsI373097
g0
(g110
g2
Ntp129
Rp130
(dp131
g114
g115
sg116
F-1.4918477627378248
sg117
F1.0
sg15
I373097
sg118
g119
sbsI354690
g0
(g110
g2
Ntp132
Rp133
(dp134
g114
g115
sg116
F0.15147985660604468
sg117
F1.0
sg15
I354690
sg118
g119
sbsI374510
g0
(g110
g2
Ntp135
Rp136
(dp137
g114
g115
sg116
F0.859311490463305
sg117
F1.0
sg15
I374510
sg118
g119
sbsI367345
g0
(g110
g2
Ntp138
Rp139
(dp140
g114
g115
sg116
F-2.585910444882411
sg117
F1.0
sg15
I367345
sg118
g119
sbsI368515
g0
(g110
g2
Ntp141
Rp142
(dp143
g114
g115
sg116
F2.2300977536248925
sg117
F1.0
sg15
I368515
sg118
g119
sbsI365141
g0
(g110
g2
Ntp144
Rp145
(dp146
g114
g115
sg116
F-1.628937963974657
sg117
F1.0
sg15
I365141
sg118
g119
sbsI374272
g0
(g110
g2
Ntp147
Rp148
(dp149
g114
g115
sg116
F-1.2430635651890394
sg117
F1.0
sg15
I374272
sg118
g119
sbsI375578
g0
(g110
g2
Ntp150
Rp151
(dp152
g114
g115
sg116
F0.8633547783054818
sg117
F1.0
sg15
I375578
sg118
g119
sbsI372861
g0
(g110
g2
Ntp153
Rp154
(dp155
g114
g115
sg116
F-1.3377414278658788
sg117
F1.0
sg15
I372861
sg118
g119
sbsI371445
g0
(g110
g2
Ntp156
Rp157
(dp158
g114
g115
sg116
F-0.6593385133287201
sg117
F1.0
sg15
I371445
sg118
g119
sbssg15
I1868041
sS'fitness'
p159
cnumpy.core.multiarray
scalar
p160
(cnumpy
dtype
p161
(S'f8'
p162
I0
I1
tp163
Rp164
(I3
S'<'
p165
NNNI-1
I-1
I0
tp166
bS'\xd6\x87\xc6\xfa\xd0X\x04@'
p167
tp168
Rp169
sb.