ccopy_reg
_reconstructor
p0
(cneat.genome
DefaultGenome
p1
c__builtin__
object
p2
Ntp3
Rp4
(dp5
S'connections'
p6
(dp7
(I365946
I355000
tp8
g0
(cneat.genes
DefaultConnectionGene
p9
g2
Ntp10
Rp11
(dp12
S'enabled'
p13
I00
sS'weight'
p14
F0.10784326131400161
sS'key'
p15
g8
sbs(I-16
I3
tp16
g0
(g9
g2
Ntp17
Rp18
(dp19
g13
I01
sg14
F16.64153209304645
sg15
g16
sbs(I-11
I372744
tp20
g0
(g9
g2
Ntp21
Rp22
(dp23
g13
I01
sg14
F1.5002454255252564
sg15
g20
sbs(I-9
I358345
tp24
g0
(g9
g2
Ntp25
Rp26
(dp27
g13
I01
sg14
F-0.349342557236229
sg15
g24
sbs(I-13
I355000
tp28
g0
(g9
g2
Ntp29
Rp30
(dp31
g13
I01
sg14
F0.8682136206870785
sg15
g28
sbs(I-12
I350287
tp32
g0
(g9
g2
Ntp33
Rp34
(dp35
g13
I00
sg14
F-0.32446775743683776
sg15
g32
sbs(I-1
I353281
tp36
g0
(g9
g2
Ntp37
Rp38
(dp39
g13
I01
sg14
F-0.3563272746797429
sg15
g36
sbs(I-5
I1
tp40
g0
(g9
g2
Ntp41
Rp42
(dp43
g13
I01
sg14
F1.242794864691208
sg15
g40
sbs(I355000
I364636
tp44
g0
(g9
g2
Ntp45
Rp46
(dp47
g13
I01
sg14
F-5.353297907744465
sg15
g44
sbs(I-11
I364636
tp48
g0
(g9
g2
Ntp49
Rp50
(dp51
g13
I00
sg14
F2.141401109456446
sg15
g48
sbs(I364636
I324206
tp52
g0
(g9
g2
Ntp53
Rp54
(dp55
g13
I01
sg14
F2.4855342184263924
sg15
g52
sbs(I365946
I353281
tp56
g0
(g9
g2
Ntp57
Rp58
(dp59
g13
I01
sg14
F1.0887932353956682
sg15
g56
sbs(I-14
I355000
tp60
g0
(g9
g2
Ntp61
Rp62
(dp63
g13
I00
sg14
F1.437097960777646
sg15
g60
sbs(I1
I324206
tp64
g0
(g9
g2
Ntp65
Rp66
(dp67
g13
I00
sg14
F1.545665696256155
sg15
g64
sbs(I-14
I365946
tp68
g0
(g9
g2
Ntp69
Rp70
(dp71
g13
I01
sg14
F-2.872715106472668
sg15
g68
sbs(I-12
I358345
tp72
g0
(g9
g2
Ntp73
Rp74
(dp75
g13
I00
sg14
F2.0471004768342813
sg15
g72
sbs(I372744
I364636
tp76
g0
(g9
g2
Ntp77
Rp78
(dp79
g13
I01
sg14
F2.1771362705149766
sg15
g76
sbs(I-5
I3
tp80
g0
(g9
g2
Ntp81
Rp82
(dp83
g13
I01
sg14
F12.742905787854554
sg15
g80
sbs(I358345
I343106
tp84
g0
(g9
g2
Ntp85
Rp86
(dp87
g13
I01
sg14
F-0.3259586359555254
sg15
g84
sbs(I-3
I341674
tp88
g0
(g9
g2
Ntp89
Rp90
(dp91
g13
I01
sg14
F-1.0409400652772387
sg15
g88
sbs(I-6
I2
tp92
g0
(g9
g2
Ntp93
Rp94
(dp95
g13
I01
sg14
F23.753815405588675
sg15
g92
sbs(I-7
I329517
tp96
g0
(g9
g2
Ntp97
Rp98
(dp99
g13
I01
sg14
F1.124447470398664
sg15
g96
sbs(I1
I360125
tp100
g0
(g9
g2
Ntp101
Rp102
(dp103
g13
I01
sg14
F-0.8566923215445783
sg15
g100
sbs(I-8
I0
tp104
g0
(g9
g2
Ntp105
Rp106
(dp107
g13
I01
sg14
F12.770076572430108
sg15
g104
sbs(I355000
I341674
tp108
g0
(g9
g2
Ntp109
Rp110
(dp111
g13
I01
sg14
F-1.172006122846727
sg15
g108
sbssS'nodes'
p112
(dp113
I0
g0
(cneat.genes
DefaultNodeGene
p114
g2
Ntp115
Rp116
(dp117
S'activation'
p118
S'sigmoid'
p119
sS'bias'
p120
F0.32733140311611836
sS'response'
p121
F1.0
sg15
I0
sS'aggregation'
p122
S'sum'
p123
sbsI1
g0
(g114
g2
Ntp124
Rp125
(dp126
g118
g119
sg120
F3.5499891744495766
sg121
F1.0
sg15
I1
sg122
g123
sbsI2
g0
(g114
g2
Ntp127
Rp128
(dp129
g118
g119
sg120
F0.9418552352478675
sg121
F1.0
sg15
I2
sg122
g123
sbsI3
g0
(g114
g2
Ntp130
Rp131
(dp132
g118
g119
sg120
F-1.0028565648791743
sg121
F1.0
sg15
I3
sg122
g123
sbsI353281
g0
(g114
g2
Ntp133
Rp134
(dp135
g118
g119
sg120
F0.18639825705595192
sg121
F1.0
sg15
I353281
sg122
g123
sbsI372744
g0
(g114
g2
Ntp136
Rp137
(dp138
g118
g119
sg120
F-0.5251544851967471
sg121
F1.0
sg15
I372744
sg122
g123
sbsI358345
g0
(g114
g2
Ntp139
Rp140
(dp141
g118
g119
sg120
F-2.0400736111815974
sg121
F1.0
sg15
I358345
sg122
g123
sbsI341674
g0
(g114
g2
Ntp142
Rp143
(dp144
g118
g119
sg120
F0.3148031994090104
sg121
F1.0
sg15
I341674
sg122
g123
sbsI362695
g0
(g114
g2
Ntp145
Rp146
(dp147
g118
g119
sg120
F2.4345694250856713
sg121
F1.0
sg15
I362695
sg122
g123
sbsI343106
g0
(g114
g2
Ntp148
Rp149
(dp150
g118
g119
sg120
F0.174030292385309
sg121
F1.0
sg15
I343106
sg122
g123
sbsI324206
g0
(g114
g2
Ntp151
Rp152
(dp153
g118
g119
sg120
F0.030500830447698052
sg121
F1.0
sg15
I324206
sg122
g123
sbsI329517
g0
(g114
g2
Ntp154
Rp155
(dp156
g118
g119
sg120
F2.2278299353303104
sg121
F1.0
sg15
I329517
sg122
g123
sbsI367316
g0
(g114
g2
Ntp157
Rp158
(dp159
g118
g119
sg120
F0.48257510015932403
sg121
F1.0
sg15
I367316
sg122
g123
sbsI357910
g0
(g114
g2
Ntp160
Rp161
(dp162
g118
g119
sg120
F-0.49039345532607687
sg121
F1.0
sg15
I357910
sg122
g123
sbsI355000
g0
(g114
g2
Ntp163
Rp164
(dp165
g118
g119
sg120
F0.6659159003804935
sg121
F1.0
sg15
I355000
sg122
g123
sbsI365946
g0
(g114
g2
Ntp166
Rp167
(dp168
g118
g119
sg120
F-0.15292053852998827
sg121
F1.0
sg15
I365946
sg122
g123
sbsI350287
g0
(g114
g2
Ntp169
Rp170
(dp171
g118
g119
sg120
F1.1158490062339228
sg121
F1.0
sg15
I350287
sg122
g123
sbsI364636
g0
(g114
g2
Ntp172
Rp173
(dp174
g118
g119
sg120
F0.5749523135874374
sg121
F1.0
sg15
I364636
sg122
g123
sbsI360125
g0
(g114
g2
Ntp175
Rp176
(dp177
g118
g119
sg120
F-2.4486016629435916
sg121
F1.0
sg15
I360125
sg122
g123
sbssg15
I1850819
sS'fitness'
p178
cnumpy.core.multiarray
scalar
p179
(cnumpy
dtype
p180
(S'f8'
p181
I0
I1
tp182
Rp183
(I3
S'<'
p184
NNNI-1
I-1
I0
tp185
bS's\n^N\xc1\x0b\x13@'
p186
tp187
Rp188
sb.