ccopy_reg
_reconstructor
p0
(cneat.genome
DefaultGenome
p1
c__builtin__
object
p2
Ntp3
Rp4
(dp5
S'connections'
p6
(dp7
(I-5
I0
tp8
g0
(cneat.genes
DefaultConnectionGene
p9
g2
Ntp10
Rp11
(dp12
S'enabled'
p13
I01
sS'weight'
p14
F2.2055554922569076
sS'key'
p15
g8
sbs(I-2
I0
tp16
g0
(g9
g2
Ntp17
Rp18
(dp19
g13
I01
sg14
F-0.6936799640029425
sg15
g16
sbs(I-14
I2
tp20
g0
(g9
g2
Ntp21
Rp22
(dp23
g13
I01
sg14
F-5.57677000967522
sg15
g20
sbs(I-16
I3
tp24
g0
(g9
g2
Ntp25
Rp26
(dp27
g13
I01
sg14
F-0.4527907627849786
sg15
g24
sbs(I-6
I3
tp28
g0
(g9
g2
Ntp29
Rp30
(dp31
g13
I01
sg14
F-25.726600330758988
sg15
g28
sbs(I-16
I1
tp32
g0
(g9
g2
Ntp33
Rp34
(dp35
g13
I01
sg14
F-25.905476305932208
sg15
g32
sbs(I-7
I0
tp36
g0
(g9
g2
Ntp37
Rp38
(dp39
g13
I01
sg14
F-1.5869481983455205
sg15
g36
sbs(I-4
I1
tp40
g0
(g9
g2
Ntp41
Rp42
(dp43
g13
I01
sg14
F-2.78429719036442
sg15
g40
sbs(I-7
I1
tp44
g0
(g9
g2
Ntp45
Rp46
(dp47
g13
I01
sg14
F18.044978684165343
sg15
g44
sbs(I-4
I0
tp48
g0
(g9
g2
Ntp49
Rp50
(dp51
g13
I00
sg14
F1.9501313548407624
sg15
g48
sbs(I-8
I0
tp52
g0
(g9
g2
Ntp53
Rp54
(dp55
g13
I01
sg14
F19.958407262097154
sg15
g52
sbs(I-10
I0
tp56
g0
(g9
g2
Ntp57
Rp58
(dp59
g13
I01
sg14
F-0.7595501526100156
sg15
g56
sbssS'nodes'
p60
(dp61
I0
g0
(cneat.genes
DefaultNodeGene
p62
g2
Ntp63
Rp64
(dp65
S'activation'
p66
S'sigmoid'
p67
sS'bias'
p68
F-0.5538951430227224
sS'response'
p69
F1.0
sg15
I0
sS'aggregation'
p70
S'sum'
p71
sbsI1
g0
(g62
g2
Ntp72
Rp73
(dp74
g66
g67
sg68
F-0.198335703606494
sg69
F1.0
sg15
I1
sg70
g71
sbsI2
g0
(g62
g2
Ntp75
Rp76
(dp77
g66
g67
sg68
F1.2435315783496455
sg69
F1.0
sg15
I2
sg70
g71
sbsI3
g0
(g62
g2
Ntp78
Rp79
(dp80
g66
g67
sg68
F10.957192082643555
sg69
F1.0
sg15
I3
sg70
g71
sbssg15
I1803452
sS'fitness'
p81
cnumpy.core.multiarray
scalar
p82
(cnumpy
dtype
p83
(S'f8'
p84
I0
I1
tp85
Rp86
(I3
S'<'
p87
NNNI-1
I-1
I0
tp88
bS'4\xd6\x87\xc6\xfa\x10\x19@'
p89
tp90
Rp91
sb.