ccopy_reg
_reconstructor
p0
(cneat.genome
DefaultGenome
p1
c__builtin__
object
p2
Ntp3
Rp4
(dp5
S'connections'
p6
(dp7
(I-1
I0
tp8
g0
(cneat.genes
DefaultConnectionGene
p9
g2
Ntp10
Rp11
(dp12
S'enabled'
p13
I01
sS'weight'
p14
F-0.9985150442845365
sS'key'
p15
g8
sbs(I-6
I362945
tp16
g0
(g9
g2
Ntp17
Rp18
(dp19
g13
I01
sg14
F-0.2751640624325049
sg15
g16
sbs(I-4
I357084
tp20
g0
(g9
g2
Ntp21
Rp22
(dp23
g13
I00
sg14
F-3.5787731966122225
sg15
g20
sbs(I357084
I3
tp24
g0
(g9
g2
Ntp25
Rp26
(dp27
g13
I01
sg14
F-3.020278201975179
sg15
g24
sbs(I361498
I2
tp28
g0
(g9
g2
Ntp29
Rp30
(dp31
g13
I01
sg14
F1.2899795430554544
sg15
g28
sbs(I-4
I2
tp32
g0
(g9
g2
Ntp33
Rp34
(dp35
g13
I01
sg14
F2.9095511301328947
sg15
g32
sbs(I-11
I353866
tp36
g0
(g9
g2
Ntp37
Rp38
(dp39
g13
I01
sg14
F-2.3116584482768983
sg15
g36
sbs(I-13
I3
tp40
g0
(g9
g2
Ntp41
Rp42
(dp43
g13
I01
sg14
F-30.0
sg15
g40
sbs(I-14
I2
tp44
g0
(g9
g2
Ntp45
Rp46
(dp47
g13
I01
sg14
F-29.18943896350381
sg15
g44
sbs(I364931
I362945
tp48
g0
(g9
g2
Ntp49
Rp50
(dp51
g13
I01
sg14
F-0.6370286583032448
sg15
g48
sbs(I-16
I0
tp52
g0
(g9
g2
Ntp53
Rp54
(dp55
g13
I00
sg14
F1.3982353752539007
sg15
g52
sbs(I-16
I1
tp56
g0
(g9
g2
Ntp57
Rp58
(dp59
g13
I01
sg14
F-8.51266364273982
sg15
g56
sbs(I-1
I357084
tp60
g0
(g9
g2
Ntp61
Rp62
(dp63
g13
I00
sg14
F0.999302070944695
sg15
g60
sbs(I353866
I361498
tp64
g0
(g9
g2
Ntp65
Rp66
(dp67
g13
I01
sg14
F-0.3627291506080661
sg15
g64
sbs(I-2
I361444
tp68
g0
(g9
g2
Ntp69
Rp70
(dp71
g13
I00
sg14
F-1.9543165834577265
sg15
g68
sbs(I-5
I3
tp72
g0
(g9
g2
Ntp73
Rp74
(dp75
g13
I01
sg14
F27.64353084889658
sg15
g72
sbs(I-2
I362945
tp76
g0
(g9
g2
Ntp77
Rp78
(dp79
g13
I01
sg14
F-0.47058218699087745
sg15
g76
sbs(I-2
I361498
tp80
g0
(g9
g2
Ntp81
Rp82
(dp83
g13
I01
sg14
F-0.8700780291102025
sg15
g80
sbs(I-6
I2
tp84
g0
(g9
g2
Ntp85
Rp86
(dp87
g13
I01
sg14
F15.990731599866315
sg15
g84
sbs(I-14
I357084
tp88
g0
(g9
g2
Ntp89
Rp90
(dp91
g13
I01
sg14
F0.5050147368974391
sg15
g88
sbs(I-8
I0
tp92
g0
(g9
g2
Ntp93
Rp94
(dp95
g13
I01
sg14
F8.561637850519148
sg15
g92
sbs(I-7
I357084
tp96
g0
(g9
g2
Ntp97
Rp98
(dp99
g13
I01
sg14
F-0.23326007755716527
sg15
g96
sbs(I-13
I364931
tp100
g0
(g9
g2
Ntp101
Rp102
(dp103
g13
I01
sg14
F-0.35363029577340066
sg15
g100
sbssS'nodes'
p104
(dp105
I0
g0
(cneat.genes
DefaultNodeGene
p106
g2
Ntp107
Rp108
(dp109
S'activation'
p110
S'sigmoid'
p111
sS'bias'
p112
F-0.12422974172504851
sS'response'
p113
F1.0
sg15
I0
sS'aggregation'
p114
S'sum'
p115
sbsI1
g0
(g106
g2
Ntp116
Rp117
(dp118
g110
g111
sg112
F5.11025002994619
sg113
F1.0
sg15
I1
sg114
g115
sbsI2
g0
(g106
g2
Ntp119
Rp120
(dp121
g110
g111
sg112
F0.10234863287343582
sg113
F1.0
sg15
I2
sg114
g115
sbsI3
g0
(g106
g2
Ntp122
Rp123
(dp124
g110
g111
sg112
F0.8573674990470168
sg113
F1.0
sg15
I3
sg114
g115
sbsI361444
g0
(g106
g2
Ntp125
Rp126
(dp127
g110
g111
sg112
F-0.8651591237439096
sg113
F1.0
sg15
I361444
sg114
g115
sbsI362945
g0
(g106
g2
Ntp128
Rp129
(dp130
g110
g111
sg112
F0.3470476098314973
sg113
F1.0
sg15
I362945
sg114
g115
sbsI353866
g0
(g106
g2
Ntp131
Rp132
(dp133
g110
g111
sg112
F-1.2234268797701504
sg113
F1.0
sg15
I353866
sg114
g115
sbsI364931
g0
(g106
g2
Ntp134
Rp135
(dp136
g110
g111
sg112
F1.1863024785685643
sg113
F1.0
sg15
I364931
sg114
g115
sbsI361498
g0
(g106
g2
Ntp137
Rp138
(dp139
g110
g111
sg112
F-4.220675940044001
sg113
F1.0
sg15
I361498
sg114
g115
sbsI357084
g0
(g106
g2
Ntp140
Rp141
(dp142
g110
g111
sg112
F1.466037802166204
sg113
F1.0
sg15
I357084
sg114
g115
sbssg15
I1834943
sS'fitness'
p143
cnumpy.core.multiarray
scalar
p144
(cnumpy
dtype
p145
(S'f8'
p146
I0
I1
tp147
Rp148
(I3
S'<'
p149
NNNI-1
I-1
I0
tp150
bS'\xebCc}h\x8c!@'
p151
tp152
Rp153
sb.