ccopy_reg
_reconstructor
p0
(cneat.genome
DefaultGenome
p1
c__builtin__
object
p2
Ntp3
Rp4
(dp5
S'connections'
p6
(dp7
(I-12
I352599
tp8
g0
(cneat.genes
DefaultConnectionGene
p9
g2
Ntp10
Rp11
(dp12
S'enabled'
p13
I01
sS'weight'
p14
F1.9560082984395868
sS'key'
p15
g8
sbs(I-7
I350105
tp16
g0
(g9
g2
Ntp17
Rp18
(dp19
g13
I01
sg14
F0.7742216022656526
sg15
g16
sbs(I-14
I358451
tp20
g0
(g9
g2
Ntp21
Rp22
(dp23
g13
I01
sg14
F-0.5488515861160013
sg15
g20
sbs(I-13
I3
tp24
g0
(g9
g2
Ntp25
Rp26
(dp27
g13
I01
sg14
F-1.9405920696259258
sg15
g24
sbs(I-14
I362536
tp28
g0
(g9
g2
Ntp29
Rp30
(dp31
g13
I01
sg14
F0.6533830131756575
sg15
g28
sbs(I364055
I362536
tp32
g0
(g9
g2
Ntp33
Rp34
(dp35
g13
I01
sg14
F-0.4555755809237366
sg15
g32
sbs(I352599
I358318
tp36
g0
(g9
g2
Ntp37
Rp38
(dp39
g13
I01
sg14
F0.8649215025108615
sg15
g36
sbs(I-2
I358451
tp40
g0
(g9
g2
Ntp41
Rp42
(dp43
g13
I01
sg14
F-0.8138347819887195
sg15
g40
sbs(I365028
I358318
tp44
g0
(g9
g2
Ntp45
Rp46
(dp47
g13
I01
sg14
F4.0460161407634
sg15
g44
sbs(I-16
I1
tp48
g0
(g9
g2
Ntp49
Rp50
(dp51
g13
I01
sg14
F-0.554467017288094
sg15
g48
sbs(I-12
I350105
tp52
g0
(g9
g2
Ntp53
Rp54
(dp55
g13
I01
sg14
F-0.6126183367393814
sg15
g52
sbs(I-2
I345833
tp56
g0
(g9
g2
Ntp57
Rp58
(dp59
g13
I00
sg14
F-0.642679136080558
sg15
g56
sbs(I-6
I2
tp60
g0
(g9
g2
Ntp61
Rp62
(dp63
g13
I01
sg14
F20.676175448395533
sg15
g60
sbs(I-7
I1
tp64
g0
(g9
g2
Ntp65
Rp66
(dp67
g13
I01
sg14
F1.8336649486834782
sg15
g64
sbs(I-13
I0
tp68
g0
(g9
g2
Ntp69
Rp70
(dp71
g13
I01
sg14
F-1.4020961474919815
sg15
g68
sbs(I-8
I0
tp72
g0
(g9
g2
Ntp73
Rp74
(dp75
g13
I01
sg14
F9.321782124741048
sg15
g72
sbs(I-7
I364055
tp76
g0
(g9
g2
Ntp77
Rp78
(dp79
g13
I01
sg14
F-0.8223380883929884
sg15
g76
sbssS'nodes'
p80
(dp81
I0
g0
(cneat.genes
DefaultNodeGene
p82
g2
Ntp83
Rp84
(dp85
S'activation'
p86
S'sigmoid'
p87
sS'bias'
p88
F0.6640060480926454
sS'response'
p89
F1.0
sg15
I0
sS'aggregation'
p90
S'sum'
p91
sbsI1
g0
(g82
g2
Ntp92
Rp93
(dp94
g86
g87
sg88
F-0.25980492381612397
sg89
F1.0
sg15
I1
sg90
g91
sbsI2
g0
(g82
g2
Ntp95
Rp96
(dp97
g86
g87
sg88
F-3.1226258879554294
sg89
F1.0
sg15
I2
sg90
g91
sbsI3
g0
(g82
g2
Ntp98
Rp99
(dp100
g86
g87
sg88
F1.1271756678319695
sg89
F1.0
sg15
I3
sg90
g91
sbsI365028
g0
(g82
g2
Ntp101
Rp102
(dp103
g86
g87
sg88
F-1.0884453913882965
sg89
F1.0
sg15
I365028
sg90
g91
sbsI362536
g0
(g82
g2
Ntp104
Rp105
(dp106
g86
g87
sg88
F0.6350907112244888
sg89
F1.0
sg15
I362536
sg90
g91
sbsI345833
g0
(g82
g2
Ntp107
Rp108
(dp109
g86
g87
sg88
F-1.502513820318715
sg89
F1.0
sg15
I345833
sg90
g91
sbsI364055
g0
(g82
g2
Ntp110
Rp111
(dp112
g86
g87
sg88
F-1.7512908028918177
sg89
F1.0
sg15
I364055
sg90
g91
sbsI358318
g0
(g82
g2
Ntp113
Rp114
(dp115
g86
g87
sg88
F-0.22005624203905758
sg89
F1.0
sg15
I358318
sg90
g91
sbsI357263
g0
(g82
g2
Ntp116
Rp117
(dp118
g86
g87
sg88
F-0.743843548115583
sg89
F1.0
sg15
I357263
sg90
g91
sbsI358451
g0
(g82
g2
Ntp119
Rp120
(dp121
g86
g87
sg88
F0.14801717396076625
sg89
F1.0
sg15
I358451
sg90
g91
sbsI352599
g0
(g82
g2
Ntp122
Rp123
(dp124
g86
g87
sg88
F1.100096608299387
sg89
F1.0
sg15
I352599
sg90
g91
sbsI350105
g0
(g82
g2
Ntp125
Rp126
(dp127
g86
g87
sg88
F0.6725815605150087
sg89
F1.0
sg15
I350105
sg90
g91
sbssg15
I1819189
sS'fitness'
p128
cnumpy.core.multiarray
scalar
p129
(cnumpy
dtype
p130
(S'f8'
p131
I0
I1
tp132
Rp133
(I3
S'<'
p134
NNNI-1
I-1
I0
tp135
bS'\x1a\xebCc}\x88"@'
p136
tp137
Rp138
sb.