ccopy_reg
_reconstructor
p0
(cneat.genome
DefaultGenome
p1
c__builtin__
object
p2
Ntp3
Rp4
(dp5
S'connections'
p6
(dp7
(I-8
I364041
tp8
g0
(cneat.genes
DefaultConnectionGene
p9
g2
Ntp10
Rp11
(dp12
S'enabled'
p13
I00
sS'weight'
p14
F0.9139342899448665
sS'key'
p15
g8
sbs(I-8
I371109
tp16
g0
(g9
g2
Ntp17
Rp18
(dp19
g13
I01
sg14
F-1.3086125296145679
sg15
g16
sbs(I-16
I3
tp20
g0
(g9
g2
Ntp21
Rp22
(dp23
g13
I01
sg14
F21.451121711197292
sg15
g20
sbs(I370031
I0
tp24
g0
(g9
g2
Ntp25
Rp26
(dp27
g13
I01
sg14
F0.3905617927832964
sg15
g24
sbs(I369272
I370031
tp28
g0
(g9
g2
Ntp29
Rp30
(dp31
g13
I01
sg14
F-1.2014039245690213
sg15
g28
sbs(I364041
I372042
tp32
g0
(g9
g2
Ntp33
Rp34
(dp35
g13
I00
sg14
F1.79807674048071
sg15
g32
sbs(I-13
I370031
tp36
g0
(g9
g2
Ntp37
Rp38
(dp39
g13
I01
sg14
F0.17400885601759009
sg15
g36
sbs(I-13
I372307
tp40
g0
(g9
g2
Ntp41
Rp42
(dp43
g13
I01
sg14
F0.46300444967271637
sg15
g40
sbs(I-16
I343172
tp44
g0
(g9
g2
Ntp45
Rp46
(dp47
g13
I01
sg14
F-0.5690254493426933
sg15
g44
sbs(I369272
I371109
tp48
g0
(g9
g2
Ntp49
Rp50
(dp51
g13
I01
sg14
F-2.434467511179493
sg15
g48
sbs(I364041
I366169
tp52
g0
(g9
g2
Ntp53
Rp54
(dp55
g13
I00
sg14
F-1.854057888579502
sg15
g52
sbs(I-8
I370587
tp56
g0
(g9
g2
Ntp57
Rp58
(dp59
g13
I01
sg14
F3.6428178843401424
sg15
g56
sbs(I3
I369272
tp60
g0
(g9
g2
Ntp61
Rp62
(dp63
g13
I01
sg14
F0.998165158190118
sg15
g60
sbs(I370587
I370906
tp64
g0
(g9
g2
Ntp65
Rp66
(dp67
g13
I01
sg14
F-2.63855838870559
sg15
g64
sbs(I-2
I2
tp68
g0
(g9
g2
Ntp69
Rp70
(dp71
g13
I00
sg14
F2.302756044124467
sg15
g68
sbs(I-13
I369272
tp72
g0
(g9
g2
Ntp73
Rp74
(dp75
g13
I01
sg14
F0.22489100318403812
sg15
g72
sbs(I372307
I0
tp76
g0
(g9
g2
Ntp77
Rp78
(dp79
g13
I01
sg14
F-0.7892966645578934
sg15
g76
sbs(I-5
I3
tp80
g0
(g9
g2
Ntp81
Rp82
(dp83
g13
I01
sg14
F16.736638877190106
sg15
g80
sbs(I1
I355540
tp84
g0
(g9
g2
Ntp85
Rp86
(dp87
g13
I01
sg14
F1.3822828273581507
sg15
g84
sbs(I-8
I366169
tp88
g0
(g9
g2
Ntp89
Rp90
(dp91
g13
I01
sg14
F-0.5005005810915248
sg15
g88
sbs(I1
I369272
tp92
g0
(g9
g2
Ntp93
Rp94
(dp95
g13
I01
sg14
F-1.5135350693151401
sg15
g92
sbs(I371109
I366169
tp96
g0
(g9
g2
Ntp97
Rp98
(dp99
g13
I01
sg14
F0.33856580349024396
sg15
g96
sbs(I372042
I366169
tp100
g0
(g9
g2
Ntp101
Rp102
(dp103
g13
I00
sg14
F-0.246491219917332
sg15
g100
sbs(I-6
I2
tp104
g0
(g9
g2
Ntp105
Rp106
(dp107
g13
I01
sg14
F20.050426329038118
sg15
g104
sbs(I-13
I0
tp108
g0
(g9
g2
Ntp109
Rp110
(dp111
g13
I00
sg14
F-0.4572096093937451
sg15
g108
sbs(I-8
I0
tp112
g0
(g9
g2
Ntp113
Rp114
(dp115
g13
I01
sg14
F10.831842702836372
sg15
g112
sbs(I-2
I339495
tp116
g0
(g9
g2
Ntp117
Rp118
(dp119
g13
I01
sg14
F1.2651514152405798
sg15
g116
sbs(I-14
I1
tp120
g0
(g9
g2
Ntp121
Rp122
(dp123
g13
I01
sg14
F1.1542221854493475
sg15
g120
sbssS'nodes'
p124
(dp125
I0
g0
(cneat.genes
DefaultNodeGene
p126
g2
Ntp127
Rp128
(dp129
S'activation'
p130
S'sigmoid'
p131
sS'bias'
p132
F-2.6339618118552415
sS'response'
p133
F1.0
sg15
I0
sS'aggregation'
p134
S'sum'
p135
sbsI1
g0
(g126
g2
Ntp136
Rp137
(dp138
g130
g131
sg132
F2.429741337230453
sg133
F1.0
sg15
I1
sg134
g135
sbsI2
g0
(g126
g2
Ntp139
Rp140
(dp141
g130
g131
sg132
F-5.841393678645434
sg133
F1.0
sg15
I2
sg134
g135
sbsI3
g0
(g126
g2
Ntp142
Rp143
(dp144
g130
g131
sg132
F-0.1875384848599861
sg133
F1.0
sg15
I3
sg134
g135
sbsI343172
g0
(g126
g2
Ntp145
Rp146
(dp147
g130
g131
sg132
F1.1885655232085848
sg133
F1.0
sg15
I343172
sg134
g135
sbsI371109
g0
(g126
g2
Ntp148
Rp149
(dp150
g130
g131
sg132
F0.2787311472456717
sg133
F1.0
sg15
I371109
sg134
g135
sbsI339495
g0
(g126
g2
Ntp151
Rp152
(dp153
g130
g131
sg132
F0.9325917695433916
sg133
F1.0
sg15
I339495
sg134
g135
sbsI364041
g0
(g126
g2
Ntp154
Rp155
(dp156
g130
g131
sg132
F0.45606227382115794
sg133
F1.0
sg15
I364041
sg134
g135
sbsI372042
g0
(g126
g2
Ntp157
Rp158
(dp159
g130
g131
sg132
F-0.40365304920127265
sg133
F1.0
sg15
I372042
sg134
g135
sbsI370031
g0
(g126
g2
Ntp160
Rp161
(dp162
g130
g131
sg132
F2.3673976115186055
sg133
F1.0
sg15
I370031
sg134
g135
sbsI364657
g0
(g126
g2
Ntp163
Rp164
(dp165
g130
g131
sg132
F-0.6511285687698176
sg133
F1.0
sg15
I364657
sg134
g135
sbsI357746
g0
(g126
g2
Ntp166
Rp167
(dp168
g130
g131
sg132
F-3.493977716012517
sg133
F1.0
sg15
I357746
sg134
g135
sbsI372307
g0
(g126
g2
Ntp169
Rp170
(dp171
g130
g131
sg132
F0.23889350446354618
sg133
F1.0
sg15
I372307
sg134
g135
sbsI355540
g0
(g126
g2
Ntp172
Rp173
(dp174
g130
g131
sg132
F2.9491571045529295
sg133
F1.0
sg15
I355540
sg134
g135
sbsI369272
g0
(g126
g2
Ntp175
Rp176
(dp177
g130
g131
sg132
F2.277317914109582
sg133
F1.0
sg15
I369272
sg134
g135
sbsI366169
g0
(g126
g2
Ntp178
Rp179
(dp180
g130
g131
sg132
F2.494465563750528
sg133
F1.0
sg15
I366169
sg134
g135
sbsI370499
g0
(g126
g2
Ntp181
Rp182
(dp183
g130
g131
sg132
F-1.0304205312361743
sg133
F1.0
sg15
I370499
sg134
g135
sbsI370587
g0
(g126
g2
Ntp184
Rp185
(dp186
g130
g131
sg132
F-0.9492503016695311
sg133
F1.0
sg15
I370587
sg134
g135
sbsI370906
g0
(g126
g2
Ntp187
Rp188
(dp189
g130
g131
sg132
F0.16255676102809258
sg133
F1.0
sg15
I370906
sg134
g135
sbssg15
I1859639
sS'fitness'
p190
cnumpy.core.multiarray
scalar
p191
(cnumpy
dtype
p192
(S'f8'
p193
I0
I1
tp194
Rp195
(I3
S'<'
p196
NNNI-1
I-1
I0
tp197
bS's\n^N\xc1\x0b\x17@'
p198
tp199
Rp200
sb.