ccopy_reg
_reconstructor
p0
(cneat.genome
DefaultGenome
p1
c__builtin__
object
p2
Ntp3
Rp4
(dp5
S'connections'
p6
(dp7
(I2
I337354
tp8
g0
(cneat.genes
DefaultConnectionGene
p9
g2
Ntp10
Rp11
(dp12
S'enabled'
p13
I01
sS'weight'
p14
F-0.5593394162471502
sS'key'
p15
g8
sbs(I-3
I363409
tp16
g0
(g9
g2
Ntp17
Rp18
(dp19
g13
I01
sg14
F0.03433217297672689
sg15
g16
sbs(I363638
I361849
tp20
g0
(g9
g2
Ntp21
Rp22
(dp23
g13
I00
sg14
F-0.5004141203252555
sg15
g20
sbs(I-14
I353590
tp24
g0
(g9
g2
Ntp25
Rp26
(dp27
g13
I01
sg14
F0.22334049927784128
sg15
g24
sbs(I-7
I363409
tp28
g0
(g9
g2
Ntp29
Rp30
(dp31
g13
I01
sg14
F-1.9245494392235059
sg15
g28
sbs(I-14
I2
tp32
g0
(g9
g2
Ntp33
Rp34
(dp35
g13
I01
sg14
F-1.3136921494588745
sg15
g32
sbs(I-8
I0
tp36
g0
(g9
g2
Ntp37
Rp38
(dp39
g13
I01
sg14
F2.865003329392105
sg15
g36
sbs(I-3
I337354
tp40
g0
(g9
g2
Ntp41
Rp42
(dp43
g13
I01
sg14
F0.7454612697117857
sg15
g40
sbs(I-3
I353184
tp44
g0
(g9
g2
Ntp45
Rp46
(dp47
g13
I01
sg14
F-1.1051962032524074
sg15
g44
sbs(I-6
I2
tp48
g0
(g9
g2
Ntp49
Rp50
(dp51
g13
I00
sg14
F2.4704274121455145
sg15
g48
sbs(I-16
I1
tp52
g0
(g9
g2
Ntp53
Rp54
(dp55
g13
I01
sg14
F-15.85576860785609
sg15
g52
sbs(I363638
I353590
tp56
g0
(g9
g2
Ntp57
Rp58
(dp59
g13
I01
sg14
F-0.787968549410553
sg15
g56
sbs(I-14
I363409
tp60
g0
(g9
g2
Ntp61
Rp62
(dp63
g13
I01
sg14
F-1.677862665390715
sg15
g60
sbs(I0
I353590
tp64
g0
(g9
g2
Ntp65
Rp66
(dp67
g13
I01
sg14
F2.456570314329253
sg15
g64
sbs(I-7
I3
tp68
g0
(g9
g2
Ntp69
Rp70
(dp71
g13
I01
sg14
F4.959762957826028
sg15
g68
sbs(I-12
I363409
tp72
g0
(g9
g2
Ntp73
Rp74
(dp75
g13
I00
sg14
F-1.4444973092502493
sg15
g72
sbs(I-5
I3
tp76
g0
(g9
g2
Ntp77
Rp78
(dp79
g13
I01
sg14
F15.463525296685571
sg15
g76
sbs(I-7
I1
tp80
g0
(g9
g2
Ntp81
Rp82
(dp83
g13
I01
sg14
F8.694794260045422
sg15
g80
sbssS'nodes'
p84
(dp85
I0
g0
(cneat.genes
DefaultNodeGene
p86
g2
Ntp87
Rp88
(dp89
S'activation'
p90
S'sigmoid'
p91
sS'bias'
p92
F-0.07081423875260018
sS'response'
p93
F1.0
sg15
I0
sS'aggregation'
p94
S'sum'
p95
sbsI1
g0
(g86
g2
Ntp96
Rp97
(dp98
g90
g91
sg92
F-1.9708036225080598
sg93
F1.0
sg15
I1
sg94
g95
sbsI2
g0
(g86
g2
Ntp99
Rp100
(dp101
g90
g91
sg92
F0.26489828215170863
sg93
F1.0
sg15
I2
sg94
g95
sbsI3
g0
(g86
g2
Ntp102
Rp103
(dp104
g90
g91
sg92
F-3.769748717715123
sg93
F1.0
sg15
I3
sg94
g95
sbsI363638
g0
(g86
g2
Ntp105
Rp106
(dp107
g90
g91
sg92
F-0.08443371214800131
sg93
F1.0
sg15
I363638
sg94
g95
sbsI353184
g0
(g86
g2
Ntp108
Rp109
(dp110
g90
g91
sg92
F0.2644156093166733
sg93
F1.0
sg15
I353184
sg94
g95
sbsI337354
g0
(g86
g2
Ntp111
Rp112
(dp113
g90
g91
sg92
F-1.509206319686108
sg93
F1.0
sg15
I337354
sg94
g95
sbsI363409
g0
(g86
g2
Ntp114
Rp115
(dp116
g90
g91
sg92
F0.7108703838845521
sg93
F1.0
sg15
I363409
sg94
g95
sbsI353590
g0
(g86
g2
Ntp117
Rp118
(dp119
g90
g91
sg92
F-0.32622585642564195
sg93
F1.0
sg15
I353590
sg94
g95
sbsI346968
g0
(g86
g2
Ntp120
Rp121
(dp122
g90
g91
sg92
F0.11844217651517332
sg93
F1.0
sg15
I346968
sg94
g95
sbsI361849
g0
(g86
g2
Ntp123
Rp124
(dp125
g90
g91
sg92
F1.78004632429312
sg93
F1.0
sg15
I361849
sg94
g95
sbssg15
I1849403
sS'fitness'
p126
cnumpy.core.multiarray
scalar
p127
(cnumpy
dtype
p128
(S'f8'
p129
I0
I1
tp130
Rp131
(I3
S'<'
p132
NNNI-1
I-1
I0
tp133
bS'\xdb\xb6m\xdb\xb6-\x17@'
p134
tp135
Rp136
sb.