ccopy_reg
_reconstructor
p0
(cneat.genome
DefaultGenome
p1
c__builtin__
object
p2
Ntp3
Rp4
(dp5
S'connections'
p6
(dp7
(I-4
I20146
tp8
g0
(cneat.genes
DefaultConnectionGene
p9
g2
Ntp10
Rp11
(dp12
S'enabled'
p13
I00
sS'weight'
p14
F0.7623208466371042
sS'key'
p15
g8
sbs(I-2
I20922
tp16
g0
(g9
g2
Ntp17
Rp18
(dp19
g13
I01
sg14
F2.582215058310117
sg15
g16
sbs(I20922
I1
tp20
g0
(g9
g2
Ntp21
Rp22
(dp23
g13
I01
sg14
F-11.46269626171657
sg15
g20
sbs(I20833
I19703
tp24
g0
(g9
g2
Ntp25
Rp26
(dp27
g13
I01
sg14
F-0.9822406719945808
sg15
g24
sbs(I-134
I3
tp28
g0
(g9
g2
Ntp29
Rp30
(dp31
g13
I01
sg14
F0.8371223527097755
sg15
g28
sbs(I-81
I20833
tp32
g0
(g9
g2
Ntp33
Rp34
(dp35
g13
I01
sg14
F1.6937390882108185
sg15
g32
sbs(I-4
I20800
tp36
g0
(g9
g2
Ntp37
Rp38
(dp39
g13
I00
sg14
F2.9102278482335557
sg15
g36
sbs(I20940
I19703
tp40
g0
(g9
g2
Ntp41
Rp42
(dp43
g13
I01
sg14
F-1.6124030233993547
sg15
g40
sbs(I-118
I3
tp44
g0
(g9
g2
Ntp45
Rp46
(dp47
g13
I00
sg14
F-0.04364665697586034
sg15
g44
sbs(I-2
I1
tp48
g0
(g9
g2
Ntp49
Rp50
(dp51
g13
I01
sg14
F-10.44196169735496
sg15
g48
sbs(I20886
I2
tp52
g0
(g9
g2
Ntp53
Rp54
(dp55
g13
I01
sg14
F0.16428005113689825
sg15
g52
sbs(I-66
I3
tp56
g0
(g9
g2
Ntp57
Rp58
(dp59
g13
I01
sg14
F-17.942608125498822
sg15
g56
sbs(I-61
I19703
tp60
g0
(g9
g2
Ntp61
Rp62
(dp63
g13
I01
sg14
F3.343706096752113
sg15
g60
sbs(I-47
I0
tp64
g0
(g9
g2
Ntp65
Rp66
(dp67
g13
I01
sg14
F0.736986989118103
sg15
g64
sbs(I-7
I20669
tp68
g0
(g9
g2
Ntp69
Rp70
(dp71
g13
I01
sg14
F1.1610618624712372
sg15
g68
sbs(I-113
I20886
tp72
g0
(g9
g2
Ntp73
Rp74
(dp75
g13
I01
sg14
F1.8538138895691645
sg15
g72
sbs(I-197
I20833
tp76
g0
(g9
g2
Ntp77
Rp78
(dp79
g13
I01
sg14
F-0.45168331996950783
sg15
g76
sbs(I-93
I20940
tp80
g0
(g9
g2
Ntp81
Rp82
(dp83
g13
I01
sg14
F0.7283293019663777
sg15
g80
sbs(I-93
I19703
tp84
g0
(g9
g2
Ntp85
Rp86
(dp87
g13
I00
sg14
F-1.0660937287403465
sg15
g84
sbs(I-113
I2
tp88
g0
(g9
g2
Ntp89
Rp90
(dp91
g13
I01
sg14
F1.3646919183925437
sg15
g88
sbs(I20651
I0
tp92
g0
(g9
g2
Ntp93
Rp94
(dp95
g13
I01
sg14
F-0.6624031491318274
sg15
g92
sbs(I-21
I20146
tp96
g0
(g9
g2
Ntp97
Rp98
(dp99
g13
I00
sg14
F-0.8556292516129007
sg15
g96
sbssS'nodes'
p100
(dp101
I0
g0
(cneat.genes
DefaultNodeGene
p102
g2
Ntp103
Rp104
(dp105
S'activation'
p106
S'sigmoid'
p107
sS'bias'
p108
F-0.5990612681782421
sS'response'
p109
F1.0
sg15
I0
sS'aggregation'
p110
S'sum'
p111
sbsI1
g0
(g102
g2
Ntp112
Rp113
(dp114
g106
g107
sg108
F5.546578005054332
sg109
F1.0
sg15
I1
sg110
g111
sbsI2
g0
(g102
g2
Ntp115
Rp116
(dp117
g106
g107
sg108
F4.124463725395864
sg109
F1.0
sg15
I2
sg110
g111
sbsI3
g0
(g102
g2
Ntp118
Rp119
(dp120
g106
g107
sg108
F-2.6301651308330727
sg109
F1.0
sg15
I3
sg110
g111
sbsI20833
g0
(g102
g2
Ntp121
Rp122
(dp123
g106
g107
sg108
F0.5505468926437171
sg109
F1.0
sg15
I20833
sg110
g111
sbsI20651
g0
(g102
g2
Ntp124
Rp125
(dp126
g106
g107
sg108
F-0.8401107920236477
sg109
F1.0
sg15
I20651
sg110
g111
sbsI20940
g0
(g102
g2
Ntp127
Rp128
(dp129
g106
g107
sg108
F-1.5311179613581685
sg109
F1.0
sg15
I20940
sg110
g111
sbsI20800
g0
(g102
g2
Ntp130
Rp131
(dp132
g106
g107
sg108
F0.7637095409311738
sg109
F1.0
sg15
I20800
sg110
g111
sbsI20146
g0
(g102
g2
Ntp133
Rp134
(dp135
g106
g107
sg108
F-0.5026746398555386
sg109
F1.0
sg15
I20146
sg110
g111
sbsI20886
g0
(g102
g2
Ntp136
Rp137
(dp138
g106
g107
sg108
F-0.4040605144726767
sg109
F1.0
sg15
I20886
sg110
g111
sbsI19703
g0
(g102
g2
Ntp139
Rp140
(dp141
g106
g107
sg108
F0.779768424498833
sg109
F1.0
sg15
I19703
sg110
g111
sbsI20922
g0
(g102
g2
Ntp142
Rp143
(dp144
g106
g107
sg108
F-1.0000867914998943
sg109
F1.0
sg15
I20922
sg110
g111
sbsI20669
g0
(g102
g2
Ntp145
Rp146
(dp147
g106
g107
sg108
F-0.17115479804014988
sg109
F1.0
sg15
I20669
sg110
g111
sbssg15
I104178
sS'fitness'
p148
cnumpy.core.multiarray
scalar
p149
(cnumpy
dtype
p150
(S'f8'
p151
I0
I1
tp152
Rp153
(I3
S'<'
p154
NNNI-1
I-1
I0
tp155
bS'\xcd\x8eZ\x84\xfc5\xe3?'
p156
tp157
Rp158
sb.