ccopy_reg
_reconstructor
p0
(cneat.genome
DefaultGenome
p1
c__builtin__
object
p2
Ntp3
Rp4
(dp5
S'connections'
p6
(dp7
(I-2
I2
tp8
g0
(cneat.genes
DefaultConnectionGene
p9
g2
Ntp10
Rp11
(dp12
S'enabled'
p13
I01
sS'weight'
p14
F-1.2307698313034396
sS'key'
p15
g8
sbssS'nodes'
p16
(dp17
I0
g0
(cneat.genes
DefaultNodeGene
p18
g2
Ntp19
Rp20
(dp21
S'activation'
p22
S'sigmoid'
p23
sS'bias'
p24
F0.6243176098292386
sS'response'
p25
F1.0
sg15
I0
sS'aggregation'
p26
S'sum'
p27
sbsI1
g0
(g18
g2
Ntp28
Rp29
(dp30
g22
g23
sg24
F2.38501283782257
sg25
F1.0
sg15
I1
sg26
g27
sbsI2
g0
(g18
g2
Ntp31
Rp32
(dp33
g22
g23
sg24
F-0.014174773771661875
sg25
F1.0
sg15
I2
sg26
g27
sbsI3
g0
(g18
g2
Ntp34
Rp35
(dp36
g22
g23
sg24
F0.09315430629821775
sg25
F1.0
sg15
I3
sg26
g27
sbssg15
I3217
sS'fitness'
p37
cnumpy.core.multiarray
scalar
p38
(cnumpy
dtype
p39
(S'f8'
p40
I0
I1
tp41
Rp42
(I3
S'<'
p43
NNNI-1
I-1
I0
tp44
bS'\x00\x00\x00\x00\x00\x00\x00\x00'
p45
tp46
Rp47
sb.