ccopy_reg
_reconstructor
p0
(cneat.genome
DefaultGenome
p1
c__builtin__
object
p2
Ntp3
Rp4
(dp5
S'connections'
p6
(dp7
(I4446
I3765
tp8
g0
(cneat.genes
DefaultConnectionGene
p9
g2
Ntp10
Rp11
(dp12
S'enabled'
p13
I01
sS'weight'
p14
F0.14533928698033113
sS'key'
p15
g8
sbs(I-11
I1
tp16
g0
(g9
g2
Ntp17
Rp18
(dp19
g13
I01
sg14
F1.9948450674511589
sg15
g16
sbs(I-3
I0
tp20
g0
(g9
g2
Ntp21
Rp22
(dp23
g13
I01
sg14
F1.4499536278516587
sg15
g20
sbs(I-18
I3
tp24
g0
(g9
g2
Ntp25
Rp26
(dp27
g13
I01
sg14
F2.9519323823844164
sg15
g24
sbs(I3
I4446
tp28
g0
(g9
g2
Ntp29
Rp30
(dp31
g13
I01
sg14
F1.0224097546907134
sg15
g28
sbs(I-12
I2
tp32
g0
(g9
g2
Ntp33
Rp34
(dp35
g13
I01
sg14
F-1.553385850508087
sg15
g32
sbs(I-13
I0
tp36
g0
(g9
g2
Ntp37
Rp38
(dp39
g13
I01
sg14
F-1.886132700036018
sg15
g36
sbssS'nodes'
p40
(dp41
I0
g0
(cneat.genes
DefaultNodeGene
p42
g2
Ntp43
Rp44
(dp45
S'activation'
p46
S'sigmoid'
p47
sS'bias'
p48
F1.0106002207865366
sS'response'
p49
F1.0
sg15
I0
sS'aggregation'
p50
S'sum'
p51
sbsI1
g0
(g42
g2
Ntp52
Rp53
(dp54
g46
g47
sg48
F0.005552547991876211
sg49
F1.0
sg15
I1
sg50
g51
sbsI2
g0
(g42
g2
Ntp55
Rp56
(dp57
g46
g47
sg48
F2.701870766371626
sg49
F1.0
sg15
I2
sg50
g51
sbsI3
g0
(g42
g2
Ntp58
Rp59
(dp60
g46
g47
sg48
F1.788689595482521
sg49
F1.0
sg15
I3
sg50
g51
sbsI3765
g0
(g42
g2
Ntp61
Rp62
(dp63
g46
g47
sg48
F-0.8065120392803233
sg49
F1.0
sg15
I3765
sg50
g51
sbsI4446
g0
(g42
g2
Ntp64
Rp65
(dp66
g46
g47
sg48
F-1.2783982731622314
sg49
F1.0
sg15
I4446
sg50
g51
sbsI3989
g0
(g42
g2
Ntp67
Rp68
(dp69
g46
g47
sg48
F1.0460548086890176
sg49
F1.0
sg15
I3989
sg50
g51
sbssg15
I22148
sS'fitness'
p70
cnumpy.core.multiarray
scalar
p71
(cnumpy
dtype
p72
(S'f8'
p73
I0
I1
tp74
Rp75
(I3
S'<'
p76
NNNI-1
I-1
I0
tp77
bS'\x00\x00\x00\x00\x00\x00\xf0?'
p78
tp79
Rp80
sb.