ccopy_reg
_reconstructor
p0
(cneat.genome
DefaultGenome
p1
c__builtin__
object
p2
Ntp3
Rp4
(dp5
S'connections'
p6
(dp7
(I-2
I17871
tp8
g0
(cneat.genes
DefaultConnectionGene
p9
g2
Ntp10
Rp11
(dp12
S'enabled'
p13
I01
sS'weight'
p14
F2.2591915744682787
sS'key'
p15
g8
sbs(I-2
I0
tp16
g0
(g9
g2
Ntp17
Rp18
(dp19
g13
I00
sg14
F-0.8420490123808697
sg15
g16
sbs(I-11
I5920
tp20
g0
(g9
g2
Ntp21
Rp22
(dp23
g13
I01
sg14
F15.752930600603348
sg15
g20
sbs(I-13
I3
tp24
g0
(g9
g2
Ntp25
Rp26
(dp27
g13
I01
sg14
F7.434719722544671
sg15
g24
sbs(I17862
I0
tp28
g0
(g9
g2
Ntp29
Rp30
(dp31
g13
I01
sg14
F-1.3313136201558267
sg15
g28
sbs(I-3
I5920
tp32
g0
(g9
g2
Ntp33
Rp34
(dp35
g13
I01
sg14
F0.3762836155739501
sg15
g32
sbs(I-2
I17855
tp36
g0
(g9
g2
Ntp37
Rp38
(dp39
g13
I01
sg14
F1.0280774272246749
sg15
g36
sbs(I-18
I5920
tp40
g0
(g9
g2
Ntp41
Rp42
(dp43
g13
I01
sg14
F-2.038746094819958
sg15
g40
sbs(I8878
I3
tp44
g0
(g9
g2
Ntp45
Rp46
(dp47
g13
I01
sg14
F-27.465331055762153
sg15
g44
sbs(I14187
I0
tp48
g0
(g9
g2
Ntp49
Rp50
(dp51
g13
I01
sg14
F15.910079063304158
sg15
g48
sbs(I-9
I15742
tp52
g0
(g9
g2
Ntp53
Rp54
(dp55
g13
I00
sg14
F-0.34884707347478217
sg15
g52
sbs(I-6
I0
tp56
g0
(g9
g2
Ntp57
Rp58
(dp59
g13
I01
sg14
F0.6855666748774819
sg15
g56
sbs(I-12
I1
tp60
g0
(g9
g2
Ntp61
Rp62
(dp63
g13
I01
sg14
F-3.688501625357561
sg15
g60
sbs(I-1
I14187
tp64
g0
(g9
g2
Ntp65
Rp66
(dp67
g13
I01
sg14
F7.931636953635412
sg15
g64
sbs(I5920
I14187
tp68
g0
(g9
g2
Ntp69
Rp70
(dp71
g13
I01
sg14
F-1.75338140309799
sg15
g68
sbs(I-5
I15742
tp72
g0
(g9
g2
Ntp73
Rp74
(dp75
g13
I01
sg14
F-0.4919611021367921
sg15
g72
sbs(I5920
I8878
tp76
g0
(g9
g2
Ntp77
Rp78
(dp79
g13
I01
sg14
F4.066688971712631
sg15
g76
sbs(I-10
I0
tp80
g0
(g9
g2
Ntp81
Rp82
(dp83
g13
I01
sg14
F-0.792815033325458
sg15
g80
sbs(I-12
I2
tp84
g0
(g9
g2
Ntp85
Rp86
(dp87
g13
I01
sg14
F-12.75213301590797
sg15
g84
sbs(I-18
I8878
tp88
g0
(g9
g2
Ntp89
Rp90
(dp91
g13
I01
sg14
F-3.0666849500167137
sg15
g88
sbs(I-4
I0
tp92
g0
(g9
g2
Ntp93
Rp94
(dp95
g13
I01
sg14
F-1.8482331268662806
sg15
g92
sbs(I-16
I2
tp96
g0
(g9
g2
Ntp97
Rp98
(dp99
g13
I01
sg14
F0.8474710654636985
sg15
g96
sbs(I3
I15742
tp100
g0
(g9
g2
Ntp101
Rp102
(dp103
g13
I01
sg14
F1.5538026399157034
sg15
g100
sbs(I-13
I0
tp104
g0
(g9
g2
Ntp105
Rp106
(dp107
g13
I01
sg14
F-1.767349116040686
sg15
g104
sbs(I-14
I1
tp108
g0
(g9
g2
Ntp109
Rp110
(dp111
g13
I01
sg14
F-3.5982574406679975
sg15
g108
sbs(I-2
I17862
tp112
g0
(g9
g2
Ntp113
Rp114
(dp115
g13
I01
sg14
F0.961717286847604
sg15
g112
sbssS'nodes'
p116
(dp117
I0
g0
(cneat.genes
DefaultNodeGene
p118
g2
Ntp119
Rp120
(dp121
S'activation'
p122
S'sigmoid'
p123
sS'bias'
p124
F-10.042095153930902
sS'response'
p125
F1.0
sg15
I0
sS'aggregation'
p126
S'sum'
p127
sbsI1
g0
(g118
g2
Ntp128
Rp129
(dp130
g122
g123
sg124
F-4.929798288479523
sg125
F1.0
sg15
I1
sg126
g127
sbsI2
g0
(g118
g2
Ntp131
Rp132
(dp133
g122
g123
sg124
F1.3901520721413303
sg125
F1.0
sg15
I2
sg126
g127
sbsI3
g0
(g118
g2
Ntp134
Rp135
(dp136
g122
g123
sg124
F3.5124705494099473
sg125
F1.0
sg15
I3
sg126
g127
sbsI17862
g0
(g118
g2
Ntp137
Rp138
(dp139
g122
g123
sg124
F-1.9758226004190318
sg125
F1.0
sg15
I17862
sg126
g127
sbsI14187
g0
(g118
g2
Ntp140
Rp141
(dp142
g122
g123
sg124
F-5.4421906443277335
sg125
F1.0
sg15
I14187
sg126
g127
sbsI8878
g0
(g118
g2
Ntp143
Rp144
(dp145
g122
g123
sg124
F-2.159897933841393
sg125
F1.0
sg15
I8878
sg126
g127
sbsI17871
g0
(g118
g2
Ntp146
Rp147
(dp148
g122
g123
sg124
F-0.10600815640930467
sg125
F1.0
sg15
I17871
sg126
g127
sbsI17728
g0
(g118
g2
Ntp149
Rp150
(dp151
g122
g123
sg124
F-0.5875922676277507
sg125
F1.0
sg15
I17728
sg126
g127
sbsI5920
g0
(g118
g2
Ntp152
Rp153
(dp154
g122
g123
sg124
F-0.3754213412358423
sg125
F1.0
sg15
I5920
sg126
g127
sbsI15742
g0
(g118
g2
Ntp155
Rp156
(dp157
g122
g123
sg124
F0.08646991447195218
sg125
F1.0
sg15
I15742
sg126
g127
sbsI17855
g0
(g118
g2
Ntp158
Rp159
(dp160
g122
g123
sg124
F-1.0569094631051865
sg125
F1.0
sg15
I17855
sg126
g127
sbssg15
I89360
sS'fitness'
p161
cnumpy.core.multiarray
scalar
p162
(cnumpy
dtype
p163
(S'f8'
p164
I0
I1
tp165
Rp166
(I3
S'<'
p167
NNNI-1
I-1
I0
tp168
bS'\xc2\xcb)x9\x85.@'
p169
tp170
Rp171
sb.