ccopy_reg
_reconstructor
p0
(cneat.genome
DefaultGenome
p1
c__builtin__
object
p2
Ntp3
Rp4
(dp5
S'connections'
p6
(dp7
(I-5
I0
tp8
g0
(cneat.genes
DefaultConnectionGene
p9
g2
Ntp10
Rp11
(dp12
S'enabled'
p13
I00
sS'weight'
p14
F0.7502164531225402
sS'key'
p15
g8
sbs(I-10
I2
tp16
g0
(g9
g2
Ntp17
Rp18
(dp19
g13
I01
sg14
F-1.5371008302102116
sg15
g16
sbs(I-1
I0
tp20
g0
(g9
g2
Ntp21
Rp22
(dp23
g13
I01
sg14
F-1.1636948451932132
sg15
g20
sbs(I-2
I675
tp24
g0
(g9
g2
Ntp25
Rp26
(dp27
g13
I01
sg14
F0.46203121144310155
sg15
g24
sbs(I-11
I1
tp28
g0
(g9
g2
Ntp29
Rp30
(dp31
g13
I00
sg14
F-0.5944466921043104
sg15
g28
sbs(I-16
I3
tp32
g0
(g9
g2
Ntp33
Rp34
(dp35
g13
I01
sg14
F0.9370571357870207
sg15
g32
sbs(I1045
I2
tp36
g0
(g9
g2
Ntp37
Rp38
(dp39
g13
I01
sg14
F-3.178268521716566
sg15
g36
sbs(I-9
I2
tp40
g0
(g9
g2
Ntp41
Rp42
(dp43
g13
I01
sg14
F-0.4088769592734365
sg15
g40
sbs(I-12
I0
tp44
g0
(g9
g2
Ntp45
Rp46
(dp47
g13
I01
sg14
F-0.31455046034254597
sg15
g44
sbs(I-15
I2
tp48
g0
(g9
g2
Ntp49
Rp50
(dp51
g13
I01
sg14
F-1.6907540264526557
sg15
g48
sbs(I-4
I2
tp52
g0
(g9
g2
Ntp53
Rp54
(dp55
g13
I00
sg14
F-0.28103058285537474
sg15
g52
sbs(I-7
I0
tp56
g0
(g9
g2
Ntp57
Rp58
(dp59
g13
I01
sg14
F1.3467794889312508
sg15
g56
sbs(I-13
I3
tp60
g0
(g9
g2
Ntp61
Rp62
(dp63
g13
I01
sg14
F-0.9313028215727264
sg15
g60
sbs(I-3
I3
tp64
g0
(g9
g2
Ntp65
Rp66
(dp67
g13
I00
sg14
F-0.7000314862614823
sg15
g64
sbs(I-8
I1
tp68
g0
(g9
g2
Ntp69
Rp70
(dp71
g13
I01
sg14
F-1.1469226912412371
sg15
g68
sbs(I-2
I0
tp72
g0
(g9
g2
Ntp73
Rp74
(dp75
g13
I00
sg14
F-1.751235926206807
sg15
g72
sbs(I-10
I3
tp76
g0
(g9
g2
Ntp77
Rp78
(dp79
g13
I01
sg14
F0.15273648497492376
sg15
g76
sbs(I-2
I1
tp80
g0
(g9
g2
Ntp81
Rp82
(dp83
g13
I01
sg14
F-0.25364229551222556
sg15
g80
sbs(I-5
I1
tp84
g0
(g9
g2
Ntp85
Rp86
(dp87
g13
I01
sg14
F-0.24363233596030037
sg15
g84
sbs(I-11
I0
tp88
g0
(g9
g2
Ntp89
Rp90
(dp91
g13
I01
sg14
F-3.2453156141960893
sg15
g88
sbs(I-14
I2
tp92
g0
(g9
g2
Ntp93
Rp94
(dp95
g13
I01
sg14
F0.8191312633984542
sg15
g92
sbs(I675
I0
tp96
g0
(g9
g2
Ntp97
Rp98
(dp99
g13
I01
sg14
F1.7053037086707854
sg15
g96
sbs(I-6
I0
tp100
g0
(g9
g2
Ntp101
Rp102
(dp103
g13
I01
sg14
F0.9515077712003264
sg15
g100
sbs(I-12
I1
tp104
g0
(g9
g2
Ntp105
Rp106
(dp107
g13
I01
sg14
F1.4692042863024626
sg15
g104
sbs(I-15
I1
tp108
g0
(g9
g2
Ntp109
Rp110
(dp111
g13
I01
sg14
F4.34173659221413
sg15
g108
sbs(I-4
I3
tp112
g0
(g9
g2
Ntp113
Rp114
(dp115
g13
I01
sg14
F-1.3658979884237452
sg15
g112
sbs(I-13
I2
tp116
g0
(g9
g2
Ntp117
Rp118
(dp119
g13
I01
sg14
F-3.4393063058241373
sg15
g116
sbs(I-16
I0
tp120
g0
(g9
g2
Ntp121
Rp122
(dp123
g13
I01
sg14
F1.7363889627236897
sg15
g120
sbs(I-3
I2
tp124
g0
(g9
g2
Ntp125
Rp126
(dp127
g13
I01
sg14
F-1.4421757967069604
sg15
g124
sbs(I-8
I2
tp128
g0
(g9
g2
Ntp129
Rp130
(dp131
g13
I01
sg14
F0.6489651083559376
sg15
g128
sbs(I-9
I1
tp132
g0
(g9
g2
Ntp133
Rp134
(dp135
g13
I01
sg14
F6.7220193236499615
sg15
g132
sbs(I-13
I1045
tp136
g0
(g9
g2
Ntp137
Rp138
(dp139
g13
I01
sg14
F1.0501846163225108
sg15
g136
sbs(I-10
I0
tp140
g0
(g9
g2
Ntp141
Rp142
(dp143
g13
I00
sg14
F-0.9254585570964663
sg15
g140
sbs(I-10
I611
tp144
g0
(g9
g2
Ntp145
Rp146
(dp147
g13
I01
sg14
F1.9052340073753082
sg15
g144
sbs(I-1
I2
tp148
g0
(g9
g2
Ntp149
Rp150
(dp151
g13
I01
sg14
F0.1231942073266096
sg15
g148
sbs(I-14
I3
tp152
g0
(g9
g2
Ntp153
Rp154
(dp155
g13
I01
sg14
F0.18230866555136968
sg15
g152
sbs(I-1
I611
tp156
g0
(g9
g2
Ntp157
Rp158
(dp159
g13
I01
sg14
F-0.6815728013479855
sg15
g156
sbs(I-12
I2
tp160
g0
(g9
g2
Ntp161
Rp162
(dp163
g13
I01
sg14
F5.52064363868681
sg15
g160
sbs(I-15
I0
tp164
g0
(g9
g2
Ntp165
Rp166
(dp167
g13
I01
sg14
F-0.550717641588315
sg15
g164
sbs(I-2
I2
tp168
g0
(g9
g2
Ntp169
Rp170
(dp171
g13
I01
sg14
F-0.9649045265337721
sg15
g168
sbs(I-1
I1
tp172
g0
(g9
g2
Ntp173
Rp174
(dp175
g13
I01
sg14
F-1.1825933195435583
sg15
g172
sbs(I-11
I3
tp176
g0
(g9
g2
Ntp177
Rp178
(dp179
g13
I00
sg14
F1.0853655063444285
sg15
g176
sbs(I-16
I1
tp180
g0
(g9
g2
Ntp181
Rp182
(dp183
g13
I01
sg14
F-0.274845149637015
sg15
g180
sbs(I-8
I3
tp184
g0
(g9
g2
Ntp185
Rp186
(dp187
g13
I01
sg14
F0.0006169171183546471
sg15
g184
sbs(I-9
I0
tp188
g0
(g9
g2
Ntp189
Rp190
(dp191
g13
I01
sg14
F-2.5081968804683594
sg15
g188
sbs(I-4
I0
tp192
g0
(g9
g2
Ntp193
Rp194
(dp195
g13
I01
sg14
F0.804554703131285
sg15
g192
sbs(I-7
I2
tp196
g0
(g9
g2
Ntp197
Rp198
(dp199
g13
I01
sg14
F0.6978748016773073
sg15
g196
sbs(I-10
I1
tp200
g0
(g9
g2
Ntp201
Rp202
(dp203
g13
I01
sg14
F0.9189169255870764
sg15
g200
sbs(I1112
I0
tp204
g0
(g9
g2
Ntp205
Rp206
(dp207
g13
I01
sg14
F-0.6425645215896771
sg15
g204
sbs(I-5
I3
tp208
g0
(g9
g2
Ntp209
Rp210
(dp211
g13
I01
sg14
F0.6912065670048657
sg15
g208
sbs(I-14
I0
tp212
g0
(g9
g2
Ntp213
Rp214
(dp215
g13
I01
sg14
F2.7110257451642443
sg15
g212
sbs(I-7
I3
tp216
g0
(g9
g2
Ntp217
Rp218
(dp219
g13
I00
sg14
F1.2035409185123342
sg15
g216
sbs(I-12
I3
tp220
g0
(g9
g2
Ntp221
Rp222
(dp223
g13
I00
sg14
F2.5447529044714656
sg15
g220
sbs(I611
I0
tp224
g0
(g9
g2
Ntp225
Rp226
(dp227
g13
I01
sg14
F-0.41282867168806003
sg15
g224
sbs(I-10
I1078
tp228
g0
(g9
g2
Ntp229
Rp230
(dp231
g13
I01
sg14
F1.3492622283042857
sg15
g228
sbs(I-11
I2
tp232
g0
(g9
g2
Ntp233
Rp234
(dp235
g13
I01
sg14
F-0.8696756862668489
sg15
g232
sbs(I-3
I0
tp236
g0
(g9
g2
Ntp237
Rp238
(dp239
g13
I00
sg14
F0.2304106644316985
sg15
g236
sbs(I-5
I611
tp240
g0
(g9
g2
Ntp241
Rp242
(dp243
g13
I01
sg14
F-1.6150139395713117
sg15
g240
sbs(I-13
I1112
tp244
g0
(g9
g2
Ntp245
Rp246
(dp247
g13
I01
sg14
F0.4654323073456599
sg15
g244
sbs(I-2
I3
tp248
g0
(g9
g2
Ntp249
Rp250
(dp251
g13
I01
sg14
F0.057729223381728395
sg15
g248
sbs(I-15
I3
tp252
g0
(g9
g2
Ntp253
Rp254
(dp255
g13
I01
sg14
F-3.4290782346317474
sg15
g252
sbs(I-4
I1
tp256
g0
(g9
g2
Ntp257
Rp258
(dp259
g13
I01
sg14
F-2.3349929608824302
sg15
g256
sbs(I-7
I1
tp260
g0
(g9
g2
Ntp261
Rp262
(dp263
g13
I01
sg14
F0.9068749195802049
sg15
g260
sbs(I-13
I1
tp264
g0
(g9
g2
Ntp265
Rp266
(dp267
g13
I01
sg14
F-1.8434382712446873
sg15
g264
sbs(I-13
I0
tp268
g0
(g9
g2
Ntp269
Rp270
(dp271
g13
I01
sg14
F-0.8721657144396511
sg15
g268
sbs(I-9
I3
tp272
g0
(g9
g2
Ntp273
Rp274
(dp275
g13
I00
sg14
F-0.08014422925351716
sg15
g272
sbs(I1078
I0
tp276
g0
(g9
g2
Ntp277
Rp278
(dp279
g13
I01
sg14
F2.1572699627079066
sg15
g276
sbs(I-14
I1
tp280
g0
(g9
g2
Ntp281
Rp282
(dp283
g13
I01
sg14
F0.16943824454032685
sg15
g280
sbssS'nodes'
p284
(dp285
I0
g0
(cneat.genes
DefaultNodeGene
p286
g2
Ntp287
Rp288
(dp289
S'activation'
p290
S'sigmoid'
p291
sS'bias'
p292
F-1.7185820577251785
sS'response'
p293
F1.0
sg15
I0
sS'aggregation'
p294
S'sum'
p295
sbsI1
g0
(g286
g2
Ntp296
Rp297
(dp298
g290
g291
sg292
F-1.48129654198856
sg293
F1.0
sg15
I1
sg294
g295
sbsI2
g0
(g286
g2
Ntp299
Rp300
(dp301
g290
g291
sg292
F-0.173800713466724
sg293
F1.0
sg15
I2
sg294
g295
sbsI3
g0
(g286
g2
Ntp302
Rp303
(dp304
g290
g291
sg292
F0.11304673984434943
sg293
F1.0
sg15
I3
sg294
g295
sbsI611
g0
(g286
g2
Ntp305
Rp306
(dp307
g290
g291
sg292
F0.29245386675394514
sg293
F1.0
sg15
I611
sg294
g295
sbsI675
g0
(g286
g2
Ntp308
Rp309
(dp310
g290
g291
sg292
F1.9410015442844626
sg293
F1.0
sg15
I675
sg294
g295
sbsI1045
g0
(g286
g2
Ntp311
Rp312
(dp313
g290
g291
sg292
F0.40688423399585294
sg293
F1.0
sg15
I1045
sg294
g295
sbsI1078
g0
(g286
g2
Ntp314
Rp315
(dp316
g290
g291
sg292
F-0.03873005108931071
sg293
F1.0
sg15
I1078
sg294
g295
sbsI1112
g0
(g286
g2
Ntp317
Rp318
(dp319
g290
g291
sg292
F0.6331990021659086
sg293
F1.0
sg15
I1112
sg294
g295
sbssg15
I6576
sS'fitness'
p320
F1.0
sb.