ccopy_reg
_reconstructor
p0
(cneat.genome
DefaultGenome
p1
c__builtin__
object
p2
Ntp3
Rp4
(dp5
S'connections'
p6
(dp7
(I-10
I2
tp8
g0
(cneat.genes
DefaultConnectionGene
p9
g2
Ntp10
Rp11
(dp12
S'enabled'
p13
I01
sS'weight'
p14
F-1.127112679835542
sS'key'
p15
g8
sbs(I-2
I0
tp16
g0
(g9
g2
Ntp17
Rp18
(dp19
g13
I01
sg14
F-0.6278069236753652
sg15
g16
sbs(I-12
I0
tp20
g0
(g9
g2
Ntp21
Rp22
(dp23
g13
I01
sg14
F0.2231096276292237
sg15
g20
sbs(I-15
I2
tp24
g0
(g9
g2
Ntp25
Rp26
(dp27
g13
I01
sg14
F0.3979276786573458
sg15
g24
sbs(I-4
I2
tp28
g0
(g9
g2
Ntp29
Rp30
(dp31
g13
I00
sg14
F1.1353747397280005
sg15
g28
sbs(I6216
I2
tp32
g0
(g9
g2
Ntp33
Rp34
(dp35
g13
I01
sg14
F0.9737688386339429
sg15
g32
sbs(I-10
I3
tp36
g0
(g9
g2
Ntp37
Rp38
(dp39
g13
I00
sg14
F0.9630162607329426
sg15
g36
sbs(I-2
I1
tp40
g0
(g9
g2
Ntp41
Rp42
(dp43
g13
I00
sg14
F-1.582938321536159
sg15
g40
sbs(I-11
I0
tp44
g0
(g9
g2
Ntp45
Rp46
(dp47
g13
I01
sg14
F-11.610238759800408
sg15
g44
sbs(I-14
I2
tp48
g0
(g9
g2
Ntp49
Rp50
(dp51
g13
I01
sg14
F3.3952567663875617
sg15
g48
sbs(I-6
I0
tp52
g0
(g9
g2
Ntp53
Rp54
(dp55
g13
I00
sg14
F-0.04963688628212276
sg15
g52
sbs(I-12
I1
tp56
g0
(g9
g2
Ntp57
Rp58
(dp59
g13
I00
sg14
F0.9205421782566633
sg15
g56
sbs(I-4
I3
tp60
g0
(g9
g2
Ntp61
Rp62
(dp63
g13
I00
sg14
F-1.7311549546547627
sg15
g60
sbs(I-4
I6216
tp64
g0
(g9
g2
Ntp65
Rp66
(dp67
g13
I01
sg14
F1.3338635806631944
sg15
g64
sbs(I-16
I0
tp68
g0
(g9
g2
Ntp69
Rp70
(dp71
g13
I00
sg14
F0.08025877764770495
sg15
g68
sbs(I-3
I2
tp72
g0
(g9
g2
Ntp73
Rp74
(dp75
g13
I01
sg14
F0.7572389286896143
sg15
g72
sbs(I-9
I1
tp76
g0
(g9
g2
Ntp77
Rp78
(dp79
g13
I01
sg14
F1.2181831436386414
sg15
g76
sbs(I-12
I2
tp80
g0
(g9
g2
Ntp81
Rp82
(dp83
g13
I01
sg14
F-2.077851179457141
sg15
g80
sbs(I-15
I0
tp84
g0
(g9
g2
Ntp85
Rp86
(dp87
g13
I00
sg14
F0.9991692220493245
sg15
g84
sbs(I-1
I2
tp88
g0
(g9
g2
Ntp89
Rp90
(dp91
g13
I01
sg14
F-8.814409009129285
sg15
g88
sbs(I-11
I3
tp92
g0
(g9
g2
Ntp93
Rp94
(dp95
g13
I01
sg14
F0.6122097278305745
sg15
g92
sbs(I-9
I0
tp96
g0
(g9
g2
Ntp97
Rp98
(dp99
g13
I01
sg14
F6.159855570874883
sg15
g96
sbs(I-4
I0
tp100
g0
(g9
g2
Ntp101
Rp102
(dp103
g13
I01
sg14
F3.5674321435293
sg15
g100
sbs(I-10
I1
tp104
g0
(g9
g2
Ntp105
Rp106
(dp107
g13
I01
sg14
F11.272314110274461
sg15
g104
sbs(I-14
I0
tp108
g0
(g9
g2
Ntp109
Rp110
(dp111
g13
I01
sg14
F-0.2705133332775668
sg15
g108
sbs(I-1
I3
tp112
g0
(g9
g2
Ntp113
Rp114
(dp115
g13
I01
sg14
F8.441826456150487
sg15
g112
sbs(I-11
I2
tp116
g0
(g9
g2
Ntp117
Rp118
(dp119
g13
I01
sg14
F1.8690437026108122
sg15
g116
sbs(I-3
I0
tp120
g0
(g9
g2
Ntp121
Rp122
(dp123
g13
I00
sg14
F2.56076701805735
sg15
g120
sbs(I-6
I2
tp124
g0
(g9
g2
Ntp125
Rp126
(dp127
g13
I01
sg14
F-0.4287400145170801
sg15
g124
sbs(I-4
I1
tp128
g0
(g9
g2
Ntp129
Rp130
(dp131
g13
I00
sg14
F3.2267535887783696
sg15
g128
sbs(I-7
I1
tp132
g0
(g9
g2
Ntp133
Rp134
(dp135
g13
I01
sg14
F-0.8277418868313088
sg15
g132
sbs(I-5
I2
tp136
g0
(g9
g2
Ntp137
Rp138
(dp139
g13
I00
sg14
F-1.3772418462939369
sg15
g136
sbs(I-14
I1
tp140
g0
(g9
g2
Ntp141
Rp142
(dp143
g13
I01
sg14
F0.7568866335850005
sg15
g140
sbssS'nodes'
p144
(dp145
I0
g0
(cneat.genes
DefaultNodeGene
p146
g2
Ntp147
Rp148
(dp149
S'activation'
p150
S'sigmoid'
p151
sS'bias'
p152
F1.0855687266563454
sS'response'
p153
F1.0
sg15
I0
sS'aggregation'
p154
S'sum'
p155
sbsI1
g0
(g146
g2
Ntp156
Rp157
(dp158
g150
g151
sg152
F-1.4673995340441865
sg153
F1.0
sg15
I1
sg154
g155
sbsI2
g0
(g146
g2
Ntp159
Rp160
(dp161
g150
g151
sg152
F0.41584870590635625
sg153
F1.0
sg15
I2
sg154
g155
sbsI3
g0
(g146
g2
Ntp162
Rp163
(dp164
g150
g151
sg152
F-1.545073125316407
sg153
F1.0
sg15
I3
sg154
g155
sbsI6216
g0
(g146
g2
Ntp165
Rp166
(dp167
g150
g151
sg152
F0.9703978085547686
sg153
F1.0
sg15
I6216
sg154
g155
sbssg15
I31232
sS'fitness'
p168
F1.0
sb.