ccopy_reg
_reconstructor
p0
(cneat.genome
DefaultGenome
p1
c__builtin__
object
p2
Ntp3
Rp4
(dp5
S'connections'
p6
(dp7
(I-14
I89630
tp8
g0
(cneat.genes
DefaultConnectionGene
p9
g2
Ntp10
Rp11
(dp12
S'enabled'
p13
I01
sS'weight'
p14
F3.6010163803471382
sS'key'
p15
g8
sbs(I-3
I89630
tp16
g0
(g9
g2
Ntp17
Rp18
(dp19
g13
I01
sg14
F-2.4998672435559164
sg15
g16
sbs(I-13
I3
tp20
g0
(g9
g2
Ntp21
Rp22
(dp23
g13
I01
sg14
F-8.114002542204794
sg15
g20
sbs(I-4
I3
tp24
g0
(g9
g2
Ntp25
Rp26
(dp27
g13
I01
sg14
F1.1579255322345252
sg15
g24
sbs(I-6
I2
tp28
g0
(g9
g2
Ntp29
Rp30
(dp31
g13
I01
sg14
F10.509851471164069
sg15
g28
sbs(I-16
I1
tp32
g0
(g9
g2
Ntp33
Rp34
(dp35
g13
I01
sg14
F-15.747472252981959
sg15
g32
sbs(I-7
I1
tp36
g0
(g9
g2
Ntp37
Rp38
(dp39
g13
I01
sg14
F13.645412993092528
sg15
g36
sbs(I-13
I84557
tp40
g0
(g9
g2
Ntp41
Rp42
(dp43
g13
I01
sg14
F1.409837788688035
sg15
g40
sbs(I-8
I0
tp44
g0
(g9
g2
Ntp45
Rp46
(dp47
g13
I01
sg14
F19.077633167827926
sg15
g44
sbs(I-3
I84557
tp48
g0
(g9
g2
Ntp49
Rp50
(dp51
g13
I00
sg14
F0.7910604052485665
sg15
g48
sbssS'nodes'
p52
(dp53
I0
g0
(cneat.genes
DefaultNodeGene
p54
g2
Ntp55
Rp56
(dp57
S'activation'
p58
S'sigmoid'
p59
sS'bias'
p60
F1.7050235959465285
sS'response'
p61
F1.0
sg15
I0
sS'aggregation'
p62
S'sum'
p63
sbsI1
g0
(g54
g2
Ntp64
Rp65
(dp66
g58
g59
sg60
F0.2227176538810546
sg61
F1.0
sg15
I1
sg62
g63
sbsI2
g0
(g54
g2
Ntp67
Rp68
(dp69
g58
g59
sg60
F-2.1307139860910174
sg61
F1.0
sg15
I2
sg62
g63
sbsI3
g0
(g54
g2
Ntp70
Rp71
(dp72
g58
g59
sg60
F4.537309378336696
sg61
F1.0
sg15
I3
sg62
g63
sbsI84557
g0
(g54
g2
Ntp73
Rp74
(dp75
g58
g59
sg60
F-0.13667225466525046
sg61
F1.0
sg15
I84557
sg62
g63
sbsI86775
g0
(g54
g2
Ntp76
Rp77
(dp78
g58
g59
sg60
F-2.3896420367062885
sg61
F1.0
sg15
I86775
sg62
g63
sbsI89630
g0
(g54
g2
Ntp79
Rp80
(dp81
g58
g59
sg60
F0.9040811729594382
sg61
F1.0
sg15
I89630
sg62
g63
sbssg15
I455594
sS'fitness'
p82
cnumpy.core.multiarray
scalar
p83
(cnumpy
dtype
p84
(S'f8'
p85
I0
I1
tp86
Rp87
(I3
S'<'
p88
NNNI-1
I-1
I0
tp89
bS'\x92$I\x92$\t\x1d@'
p90
tp91
Rp92
sb.