ccopy_reg
_reconstructor
p0
(cneat.genome
DefaultGenome
p1
c__builtin__
object
p2
Ntp3
Rp4
(dp5
S'connections'
p6
(dp7
(I-9
I87614
tp8
g0
(cneat.genes
DefaultConnectionGene
p9
g2
Ntp10
Rp11
(dp12
S'enabled'
p13
I01
sS'weight'
p14
F-1.2043446788113132
sS'key'
p15
g8
sbs(I-2
I92218
tp16
g0
(g9
g2
Ntp17
Rp18
(dp19
g13
I01
sg14
F1.2001410730350894
sg15
g16
sbs(I-7
I91582
tp20
g0
(g9
g2
Ntp21
Rp22
(dp23
g13
I01
sg14
F0.6325687035986919
sg15
g20
sbs(I91504
I91940
tp24
g0
(g9
g2
Ntp25
Rp26
(dp27
g13
I01
sg14
F-3.1532235369460464
sg15
g24
sbs(I1
I91504
tp28
g0
(g9
g2
Ntp29
Rp30
(dp31
g13
I01
sg14
F-1.198594288527445
sg15
g28
sbs(I-15
I87614
tp32
g0
(g9
g2
Ntp33
Rp34
(dp35
g13
I01
sg14
F0.933654529556365
sg15
g32
sbs(I91582
I1
tp36
g0
(g9
g2
Ntp37
Rp38
(dp39
g13
I01
sg14
F3.1629002783508033
sg15
g36
sbs(I-9
I2
tp40
g0
(g9
g2
Ntp41
Rp42
(dp43
g13
I01
sg14
F2.0123849945314376
sg15
g40
sbs(I-16
I1
tp44
g0
(g9
g2
Ntp45
Rp46
(dp47
g13
I01
sg14
F-11.628759912204327
sg15
g44
sbs(I-7
I1
tp48
g0
(g9
g2
Ntp49
Rp50
(dp51
g13
I01
sg14
F7.187472414801661
sg15
g48
sbs(I89963
I88591
tp52
g0
(g9
g2
Ntp53
Rp54
(dp55
g13
I01
sg14
F-1.1001511929847967
sg15
g52
sbs(I1
I87614
tp56
g0
(g9
g2
Ntp57
Rp58
(dp59
g13
I01
sg14
F-3.072511812937273
sg15
g56
sbs(I-15
I0
tp60
g0
(g9
g2
Ntp61
Rp62
(dp63
g13
I01
sg14
F-3.16939111234111
sg15
g60
sbssS'nodes'
p64
(dp65
I0
g0
(cneat.genes
DefaultNodeGene
p66
g2
Ntp67
Rp68
(dp69
S'activation'
p70
S'sigmoid'
p71
sS'bias'
p72
F3.5073456659506284
sS'response'
p73
F1.0
sg15
I0
sS'aggregation'
p74
S'sum'
p75
sbsI1
g0
(g66
g2
Ntp76
Rp77
(dp78
g70
g71
sg72
F-0.35416502013085627
sg73
F1.0
sg15
I1
sg74
g75
sbsI2
g0
(g66
g2
Ntp79
Rp80
(dp81
g70
g71
sg72
F-1.5526275232018232
sg73
F1.0
sg15
I2
sg74
g75
sbsI3
g0
(g66
g2
Ntp82
Rp83
(dp84
g70
g71
sg72
F0.3670518058585182
sg73
F1.0
sg15
I3
sg74
g75
sbsI91940
g0
(g66
g2
Ntp85
Rp86
(dp87
g70
g71
sg72
F2.1345988969925047
sg73
F1.0
sg15
I91940
sg74
g75
sbsI86977
g0
(g66
g2
Ntp88
Rp89
(dp90
g70
g71
sg72
F-0.22825518887155405
sg73
F1.0
sg15
I86977
sg74
g75
sbsI89963
g0
(g66
g2
Ntp91
Rp92
(dp93
g70
g71
sg72
F-1.159226606017281
sg73
F1.0
sg15
I89963
sg74
g75
sbsI87151
g0
(g66
g2
Ntp94
Rp95
(dp96
g70
g71
sg72
F-2.0950481771989264
sg73
F1.0
sg15
I87151
sg74
g75
sbsI91504
g0
(g66
g2
Ntp97
Rp98
(dp99
g70
g71
sg72
F2.3513888011188837
sg73
F1.0
sg15
I91504
sg74
g75
sbsI88547
g0
(g66
g2
Ntp100
Rp101
(dp102
g70
g71
sg72
F-0.19681624504898043
sg73
F1.0
sg15
I88547
sg74
g75
sbsI87614
g0
(g66
g2
Ntp103
Rp104
(dp105
g70
g71
sg72
F1.197238507184454
sg73
F1.0
sg15
I87614
sg74
g75
sbsI88591
g0
(g66
g2
Ntp106
Rp107
(dp108
g70
g71
sg72
F2.2960133901370803
sg73
F1.0
sg15
I88591
sg74
g75
sbsI92218
g0
(g66
g2
Ntp109
Rp110
(dp111
g70
g71
sg72
F-1.3132110634707128
sg73
F1.0
sg15
I92218
sg74
g75
sbsI90171
g0
(g66
g2
Ntp112
Rp113
(dp114
g70
g71
sg72
F-1.1484320560588401
sg73
F1.0
sg15
I90171
sg74
g75
sbsI91582
g0
(g66
g2
Ntp115
Rp116
(dp117
g70
g71
sg72
F-1.1763938841565633
sg73
F1.0
sg15
I91582
sg74
g75
sbssg15
I459674
sS'fitness'
p118
cnumpy.core.multiarray
scalar
p119
(cnumpy
dtype
p120
(S'f8'
p121
I0
I1
tp122
Rp123
(I3
S'<'
p124
NNNI-1
I-1
I0
tp125
bS't\n^N\xc1\xcb\xf8?'
p126
tp127
Rp128
sb.