ccopy_reg
_reconstructor
p0
(cneat.genome
DefaultGenome
p1
c__builtin__
object
p2
Ntp3
Rp4
(dp5
S'connections'
p6
(dp7
(I90883
I2
tp8
g0
(cneat.genes
DefaultConnectionGene
p9
g2
Ntp10
Rp11
(dp12
S'enabled'
p13
I01
sS'weight'
p14
F0.33886759907234754
sS'key'
p15
g8
sbs(I-6
I90310
tp16
g0
(g9
g2
Ntp17
Rp18
(dp19
g13
I01
sg14
F1.6857134884767881
sg15
g16
sbs(I-13
I90653
tp20
g0
(g9
g2
Ntp21
Rp22
(dp23
g13
I01
sg14
F0.49308107050096694
sg15
g20
sbs(I-16
I3
tp24
g0
(g9
g2
Ntp25
Rp26
(dp27
g13
I01
sg14
F8.239422567890287
sg15
g24
sbs(I-1
I2
tp28
g0
(g9
g2
Ntp29
Rp30
(dp31
g13
I01
sg14
F-1.9590310733575733
sg15
g28
sbs(I-6
I90883
tp32
g0
(g9
g2
Ntp33
Rp34
(dp35
g13
I01
sg14
F-0.20224436489115538
sg15
g32
sbs(I-6
I2
tp36
g0
(g9
g2
Ntp37
Rp38
(dp39
g13
I01
sg14
F3.1478640606206065
sg15
g36
sbs(I90310
I2
tp40
g0
(g9
g2
Ntp41
Rp42
(dp43
g13
I01
sg14
F1.2648448072282092
sg15
g40
sbs(I-7
I1
tp44
g0
(g9
g2
Ntp45
Rp46
(dp47
g13
I01
sg14
F6.2934331768848395
sg15
g44
sbs(I90653
I3
tp48
g0
(g9
g2
Ntp49
Rp50
(dp51
g13
I01
sg14
F2.9364208200418056
sg15
g48
sbs(I-8
I0
tp52
g0
(g9
g2
Ntp53
Rp54
(dp55
g13
I01
sg14
F12.055249073386786
sg15
g52
sbs(I-16
I90883
tp56
g0
(g9
g2
Ntp57
Rp58
(dp59
g13
I01
sg14
F0.6459116704232822
sg15
g56
sbs(I-13
I3
tp60
g0
(g9
g2
Ntp61
Rp62
(dp63
g13
I00
sg14
F2.4779387616069117
sg15
g60
sbssS'nodes'
p64
(dp65
I0
g0
(cneat.genes
DefaultNodeGene
p66
g2
Ntp67
Rp68
(dp69
S'activation'
p70
S'sigmoid'
p71
sS'bias'
p72
F0.3793426691904648
sS'response'
p73
F1.0
sg15
I0
sS'aggregation'
p74
S'sum'
p75
sbsI1
g0
(g66
g2
Ntp76
Rp77
(dp78
g70
g71
sg72
F-2.1820741364188905
sg73
F1.0
sg15
I1
sg74
g75
sbsI2
g0
(g66
g2
Ntp79
Rp80
(dp81
g70
g71
sg72
F0.7365508233527123
sg73
F1.0
sg15
I2
sg74
g75
sbsI3
g0
(g66
g2
Ntp82
Rp83
(dp84
g70
g71
sg72
F0.8273482799055458
sg73
F1.0
sg15
I3
sg74
g75
sbsI90310
g0
(g66
g2
Ntp85
Rp86
(dp87
g70
g71
sg72
F0.2992404954304937
sg73
F1.0
sg15
I90310
sg74
g75
sbsI90883
g0
(g66
g2
Ntp88
Rp89
(dp90
g70
g71
sg72
F1.1159879540736564
sg73
F1.0
sg15
I90883
sg74
g75
sbsI90653
g0
(g66
g2
Ntp91
Rp92
(dp93
g70
g71
sg72
F1.1862695515605362
sg73
F1.0
sg15
I90653
sg74
g75
sbssg15
I452174
sS'fitness'
p94
cnumpy.core.multiarray
scalar
p95
(cnumpy
dtype
p96
(S'f8'
p97
I0
I1
tp98
Rp99
(I3
S'<'
p100
NNNI-1
I-1
I0
tp101
bS'c}h\xac\x0f\r\x12@'
p102
tp103
Rp104
sb.