ccopy_reg
_reconstructor
p0
(cneat.genome
DefaultGenome
p1
c__builtin__
object
p2
Ntp3
Rp4
(dp5
S'connections'
p6
(dp7
(I-14
I0
tp8
g0
(cneat.genes
DefaultConnectionGene
p9
g2
Ntp10
Rp11
(dp12
S'enabled'
p13
I00
sS'weight'
p14
F-3.19045431384734
sS'key'
p15
g8
sbs(I-5
I1
tp16
g0
(g9
g2
Ntp17
Rp18
(dp19
g13
I01
sg14
F0.06161968014460928
sg15
g16
sbs(I-14
I93137
tp20
g0
(g9
g2
Ntp21
Rp22
(dp23
g13
I01
sg14
F1.4445321727098903
sg15
g20
sbs(I93137
I0
tp24
g0
(g9
g2
Ntp25
Rp26
(dp27
g13
I01
sg14
F-3.17765573948998
sg15
g24
sbs(I92924
I0
tp28
g0
(g9
g2
Ntp29
Rp30
(dp31
g13
I01
sg14
F1.6503842021695212
sg15
g28
sbs(I-9
I2
tp32
g0
(g9
g2
Ntp33
Rp34
(dp35
g13
I01
sg14
F3.5855286441847576
sg15
g32
sbs(I-16
I92924
tp36
g0
(g9
g2
Ntp37
Rp38
(dp39
g13
I01
sg14
F-1.617504225101415
sg15
g36
sbs(I-16
I0
tp40
g0
(g9
g2
Ntp41
Rp42
(dp43
g13
I00
sg14
F-0.597456722982923
sg15
g40
sbs(I-7
I1
tp44
g0
(g9
g2
Ntp45
Rp46
(dp47
g13
I01
sg14
F16.78267630732381
sg15
g44
sbs(I-4
I0
tp48
g0
(g9
g2
Ntp49
Rp50
(dp51
g13
I01
sg14
F-0.6801115923776787
sg15
g48
sbssS'nodes'
p52
(dp53
I0
g0
(cneat.genes
DefaultNodeGene
p54
g2
Ntp55
Rp56
(dp57
S'activation'
p58
S'sigmoid'
p59
sS'bias'
p60
F-2.1021800044204415
sS'response'
p61
F1.0
sg15
I0
sS'aggregation'
p62
S'sum'
p63
sbsI1
g0
(g54
g2
Ntp64
Rp65
(dp66
g58
g59
sg60
F-10.480426042611041
sg61
F1.0
sg15
I1
sg62
g63
sbsI2
g0
(g54
g2
Ntp67
Rp68
(dp69
g58
g59
sg60
F-6.089302666400149
sg61
F1.0
sg15
I2
sg62
g63
sbsI3
g0
(g54
g2
Ntp70
Rp71
(dp72
g58
g59
sg60
F-1.4952272451645519
sg61
F1.0
sg15
I3
sg62
g63
sbsI87216
g0
(g54
g2
Ntp73
Rp74
(dp75
g58
g59
sg60
F1.709703028050216
sg61
F1.0
sg15
I87216
sg62
g63
sbsI93137
g0
(g54
g2
Ntp76
Rp77
(dp78
g58
g59
sg60
F-0.7275591954262512
sg61
F1.0
sg15
I93137
sg62
g63
sbsI92924
g0
(g54
g2
Ntp79
Rp80
(dp81
g58
g59
sg60
F-2.166876425789391
sg61
F1.0
sg15
I92924
sg62
g63
sbssg15
I463138
sS'fitness'
p82
cnumpy.core.multiarray
scalar
p83
(cnumpy
dtype
p84
(S'f8'
p85
I0
I1
tp86
Rp87
(I3
S'<'
p88
NNNI-1
I-1
I0
tp89
bS'\xf1r\n^N\xc1\xf8?'
p90
tp91
Rp92
sb.