ccopy_reg
_reconstructor
p0
(cneat.genome
DefaultGenome
p1
c__builtin__
object
p2
Ntp3
Rp4
(dp5
S'connections'
p6
(dp7
(I80304
I80230
tp8
g0
(cneat.genes
DefaultConnectionGene
p9
g2
Ntp10
Rp11
(dp12
S'enabled'
p13
I01
sS'weight'
p14
F-0.9070306454022097
sS'key'
p15
g8
sbs(I81122
I80230
tp16
g0
(g9
g2
Ntp17
Rp18
(dp19
g13
I01
sg14
F-3.914385081175601
sg15
g16
sbs(I-12
I0
tp20
g0
(g9
g2
Ntp21
Rp22
(dp23
g13
I01
sg14
F1.8477567160057
sg15
g20
sbs(I-2
I81572
tp24
g0
(g9
g2
Ntp25
Rp26
(dp27
g13
I01
sg14
F1.2849165122945903
sg15
g24
sbs(I-12
I85038
tp28
g0
(g9
g2
Ntp29
Rp30
(dp31
g13
I00
sg14
F0.2207293758686677
sg15
g28
sbs(I81217
I79682
tp32
g0
(g9
g2
Ntp33
Rp34
(dp35
g13
I01
sg14
F4.286466896928719
sg15
g32
sbs(I-14
I2
tp36
g0
(g9
g2
Ntp37
Rp38
(dp39
g13
I01
sg14
F-0.20333753245326947
sg15
g36
sbs(I-10
I75308
tp40
g0
(g9
g2
Ntp41
Rp42
(dp43
g13
I01
sg14
F3.6655357686471386
sg15
g40
sbs(I85038
I65977
tp44
g0
(g9
g2
Ntp45
Rp46
(dp47
g13
I01
sg14
F-0.6055479914731532
sg15
g44
sbs(I-9
I1
tp48
g0
(g9
g2
Ntp49
Rp50
(dp51
g13
I01
sg14
F-7.6626275415617995
sg15
g48
sbs(I-9
I80230
tp52
g0
(g9
g2
Ntp53
Rp54
(dp55
g13
I01
sg14
F-1.8956871568927822
sg15
g52
sbs(I-7
I3
tp56
g0
(g9
g2
Ntp57
Rp58
(dp59
g13
I00
sg14
F1.3373490122468825
sg15
g56
sbs(I-10
I0
tp60
g0
(g9
g2
Ntp61
Rp62
(dp63
g13
I01
sg14
F-15.311872328154044
sg15
g60
sbs(I-12
I2
tp64
g0
(g9
g2
Ntp65
Rp66
(dp67
g13
I01
sg14
F-2.5380069211538556
sg15
g64
sbs(I-5
I80230
tp68
g0
(g9
g2
Ntp69
Rp70
(dp71
g13
I01
sg14
F-1.2700055720536285
sg15
g68
sbs(I-11
I3
tp72
g0
(g9
g2
Ntp73
Rp74
(dp75
g13
I01
sg14
F-9.346291050260332
sg15
g72
sbs(I-5
I81217
tp76
g0
(g9
g2
Ntp77
Rp78
(dp79
g13
I01
sg14
F0.8346815715605593
sg15
g76
sbs(I1
I79682
tp80
g0
(g9
g2
Ntp81
Rp82
(dp83
g13
I01
sg14
F2.052634479287729
sg15
g80
sbs(I-7
I81629
tp84
g0
(g9
g2
Ntp85
Rp86
(dp87
g13
I01
sg14
F-2.126825256974952
sg15
g84
sbs(I2
I80230
tp88
g0
(g9
g2
Ntp89
Rp90
(dp91
g13
I01
sg14
F-0.0027247471485162774
sg15
g88
sbs(I-6
I80099
tp92
g0
(g9
g2
Ntp93
Rp94
(dp95
g13
I01
sg14
F0.5299707025260478
sg15
g92
sbs(I-6
I2
tp96
g0
(g9
g2
Ntp97
Rp98
(dp99
g13
I01
sg14
F28.440360746228773
sg15
g96
sbs(I81629
I3
tp100
g0
(g9
g2
Ntp101
Rp102
(dp103
g13
I01
sg14
F1.221486177060019
sg15
g100
sbs(I-13
I0
tp104
g0
(g9
g2
Ntp105
Rp106
(dp107
g13
I01
sg14
F2.3431545159037093
sg15
g104
sbssS'nodes'
p108
(dp109
I0
g0
(cneat.genes
DefaultNodeGene
p110
g2
Ntp111
Rp112
(dp113
S'activation'
p114
S'sigmoid'
p115
sS'bias'
p116
F0.5651275315842367
sS'response'
p117
F1.0
sg15
I0
sS'aggregation'
p118
S'sum'
p119
sbsI1
g0
(g110
g2
Ntp120
Rp121
(dp122
g114
g115
sg116
F-1.2335085151491514
sg117
F1.0
sg15
I1
sg118
g119
sbsI2
g0
(g110
g2
Ntp123
Rp124
(dp125
g114
g115
sg116
F-5.82376014955654
sg117
F1.0
sg15
I2
sg118
g119
sbsI3
g0
(g110
g2
Ntp126
Rp127
(dp128
g114
g115
sg116
F1.4183048517444876
sg117
F1.0
sg15
I3
sg118
g119
sbsI81572
g0
(g110
g2
Ntp129
Rp130
(dp131
g114
g115
sg116
F0.7882637257688225
sg117
F1.0
sg15
I81572
sg118
g119
sbsI70624
g0
(g110
g2
Ntp132
Rp133
(dp134
g114
g115
sg116
F0.8025479144519856
sg117
F1.0
sg15
I70624
sg118
g119
sbsI80230
g0
(g110
g2
Ntp135
Rp136
(dp137
g114
g115
sg116
F6.556879434463294
sg117
F1.0
sg15
I80230
sg118
g119
sbsI81217
g0
(g110
g2
Ntp138
Rp139
(dp140
g114
g115
sg116
F0.7208165470162748
sg117
F1.0
sg15
I81217
sg118
g119
sbsI75308
g0
(g110
g2
Ntp141
Rp142
(dp143
g114
g115
sg116
F-0.9936760412061224
sg117
F1.0
sg15
I75308
sg118
g119
sbsI81122
g0
(g110
g2
Ntp144
Rp145
(dp146
g114
g115
sg116
F-0.816237979722845
sg117
F1.0
sg15
I81122
sg118
g119
sbsI85038
g0
(g110
g2
Ntp147
Rp148
(dp149
g114
g115
sg116
F0.5082125645420376
sg117
F1.0
sg15
I85038
sg118
g119
sbsI80304
g0
(g110
g2
Ntp150
Rp151
(dp152
g114
g115
sg116
F-0.5549828535167203
sg117
F1.0
sg15
I80304
sg118
g119
sbsI80099
g0
(g110
g2
Ntp153
Rp154
(dp155
g114
g115
sg116
F0.15729303502022837
sg117
F1.0
sg15
I80099
sg118
g119
sbsI65977
g0
(g110
g2
Ntp156
Rp157
(dp158
g114
g115
sg116
F-0.8989933841749984
sg117
F1.0
sg15
I65977
sg118
g119
sbsI79682
g0
(g110
g2
Ntp159
Rp160
(dp161
g114
g115
sg116
F2.021927759332477
sg117
F1.0
sg15
I79682
sg118
g119
sbsI81629
g0
(g110
g2
Ntp162
Rp163
(dp164
g114
g115
sg116
F-0.7676639010878333
sg117
F1.0
sg15
I81629
sg118
g119
sbsI75487
g0
(g110
g2
Ntp165
Rp166
(dp167
g114
g115
sg116
F2.593725169833708
sg117
F1.0
sg15
I75487
sg118
g119
sbssg15
I476604
sS'fitness'
p168
cnumpy.core.multiarray
scalar
p169
(cnumpy
dtype
p170
(S'f8'
p171
I0
I1
tp172
Rp173
(I3
S'<'
p174
NNNI-1
I-1
I0
tp175
bS'\x14\xbc\x9c\x82\x97CA@'
p176
tp177
Rp178
sb.