ccopy_reg
_reconstructor
p0
(cneat.genome
DefaultGenome
p1
c__builtin__
object
p2
Ntp3
Rp4
(dp5
S'connections'
p6
(dp7
(I-2
I95020
tp8
g0
(cneat.genes
DefaultConnectionGene
p9
g2
Ntp10
Rp11
(dp12
S'enabled'
p13
I01
sS'weight'
p14
F0.9282105899500903
sS'key'
p15
g8
sbs(I-12
I2
tp16
g0
(g9
g2
Ntp17
Rp18
(dp19
g13
I01
sg14
F-4.223963043147147
sg15
g16
sbs(I84120
I0
tp20
g0
(g9
g2
Ntp21
Rp22
(dp23
g13
I01
sg14
F9.234797367613444
sg15
g20
sbs(I-12
I3
tp24
g0
(g9
g2
Ntp25
Rp26
(dp27
g13
I01
sg14
F0.9564126534248582
sg15
g24
sbs(I-11
I93499
tp28
g0
(g9
g2
Ntp29
Rp30
(dp31
g13
I01
sg14
F0.3179282735357031
sg15
g28
sbs(I-14
I84120
tp32
g0
(g9
g2
Ntp33
Rp34
(dp35
g13
I01
sg14
F2.7402366653259156
sg15
g32
sbs(I95020
I2
tp36
g0
(g9
g2
Ntp37
Rp38
(dp39
g13
I01
sg14
F-0.8360851011181233
sg15
g36
sbs(I-2
I2
tp40
g0
(g9
g2
Ntp41
Rp42
(dp43
g13
I00
sg14
F-0.9956690898241939
sg15
g40
sbs(I-11
I2
tp44
g0
(g9
g2
Ntp45
Rp46
(dp47
g13
I00
sg14
F1.6872273463176397
sg15
g44
sbs(I-16
I2
tp48
g0
(g9
g2
Ntp49
Rp50
(dp51
g13
I01
sg14
F-0.16501864859108603
sg15
g48
sbs(I-9
I2
tp52
g0
(g9
g2
Ntp53
Rp54
(dp55
g13
I01
sg14
F9.55371628604524
sg15
g52
sbs(I-11
I3
tp56
g0
(g9
g2
Ntp57
Rp58
(dp59
g13
I01
sg14
F-14.607133280002277
sg15
g56
sbs(I-16
I1
tp60
g0
(g9
g2
Ntp61
Rp62
(dp63
g13
I01
sg14
F-0.762690366077523
sg15
g60
sbs(I-13
I2
tp64
g0
(g9
g2
Ntp65
Rp66
(dp67
g13
I01
sg14
F-1.7910835034554864
sg15
g64
sbs(I-3
I3
tp68
g0
(g9
g2
Ntp69
Rp70
(dp71
g13
I01
sg14
F-1.9849506613083454
sg15
g68
sbs(I93499
I2
tp72
g0
(g9
g2
Ntp73
Rp74
(dp75
g13
I01
sg14
F2.586110678471983
sg15
g72
sbs(I-4
I89740
tp76
g0
(g9
g2
Ntp77
Rp78
(dp79
g13
I01
sg14
F0.666549539779968
sg15
g76
sbs(I-6
I89740
tp80
g0
(g9
g2
Ntp81
Rp82
(dp83
g13
I01
sg14
F-2.197729136673033
sg15
g80
sbs(I89740
I3
tp84
g0
(g9
g2
Ntp85
Rp86
(dp87
g13
I01
sg14
F0.22270548786001915
sg15
g84
sbssS'nodes'
p88
(dp89
I0
g0
(cneat.genes
DefaultNodeGene
p90
g2
Ntp91
Rp92
(dp93
S'activation'
p94
S'sigmoid'
p95
sS'bias'
p96
F-1.8608331954670003
sS'response'
p97
F1.0
sg15
I0
sS'aggregation'
p98
S'sum'
p99
sbsI1
g0
(g90
g2
Ntp100
Rp101
(dp102
g94
g95
sg96
F-1.3443462200845966
sg97
F1.0
sg15
I1
sg98
g99
sbsI2
g0
(g90
g2
Ntp103
Rp104
(dp105
g94
g95
sg96
F0.3355881357945154
sg97
F1.0
sg15
I2
sg98
g99
sbsI3
g0
(g90
g2
Ntp106
Rp107
(dp108
g94
g95
sg96
F0.8796109737736966
sg97
F1.0
sg15
I3
sg98
g99
sbsI95020
g0
(g90
g2
Ntp109
Rp110
(dp111
g94
g95
sg96
F1.618328431211307
sg97
F1.0
sg15
I95020
sg98
g99
sbsI89740
g0
(g90
g2
Ntp112
Rp113
(dp114
g94
g95
sg96
F0.8199298723919106
sg97
F1.0
sg15
I89740
sg98
g99
sbsI84120
g0
(g90
g2
Ntp115
Rp116
(dp117
g94
g95
sg96
F-3.1915289463664394
sg97
F1.0
sg15
I84120
sg98
g99
sbsI93499
g0
(g90
g2
Ntp118
Rp119
(dp120
g94
g95
sg96
F-0.29279689229670636
sg97
F1.0
sg15
I93499
sg98
g99
sbssg15
I469025
sS'fitness'
p121
cnumpy.core.multiarray
scalar
p122
(cnumpy
dtype
p123
(S'f8'
p124
I0
I1
tp125
Rp126
(I3
S'<'
p127
NNNI-1
I-1
I0
tp128
bS'\x00\x00\x00\x00\x00\x00\x02@'
p129
tp130
Rp131
sb.