ccopy_reg
_reconstructor
p0
(cneat.genome
DefaultGenome
p1
c__builtin__
object
p2
Ntp3
Rp4
(dp5
S'connections'
p6
(dp7
(I-7
I77322
tp8
g0
(cneat.genes
DefaultConnectionGene
p9
g2
Ntp10
Rp11
(dp12
S'enabled'
p13
I01
sS'weight'
p14
F7.616172132074405
sS'key'
p15
g8
sbs(I-14
I91520
tp16
g0
(g9
g2
Ntp17
Rp18
(dp19
g13
I01
sg14
F1.2638382650178
sg15
g16
sbs(I-4
I77322
tp20
g0
(g9
g2
Ntp21
Rp22
(dp23
g13
I01
sg14
F-6.987645125499999
sg15
g20
sbs(I-9
I2
tp24
g0
(g9
g2
Ntp25
Rp26
(dp27
g13
I01
sg14
F1.95783017098567
sg15
g24
sbs(I77322
I1
tp28
g0
(g9
g2
Ntp29
Rp30
(dp31
g13
I01
sg14
F20.840640566005725
sg15
g28
sbs(I-4
I0
tp32
g0
(g9
g2
Ntp33
Rp34
(dp35
g13
I01
sg14
F2.6295358509900906
sg15
g32
sbs(I91520
I3
tp36
g0
(g9
g2
Ntp37
Rp38
(dp39
g13
I00
sg14
F-1.0017214394809404
sg15
g36
sbs(I-8
I77322
tp40
g0
(g9
g2
Ntp41
Rp42
(dp43
g13
I01
sg14
F-0.2839348569066322
sg15
g40
sbssS'nodes'
p44
(dp45
I0
g0
(cneat.genes
DefaultNodeGene
p46
g2
Ntp47
Rp48
(dp49
S'activation'
p50
S'sigmoid'
p51
sS'bias'
p52
F3.144498098910283
sS'response'
p53
F1.0
sg15
I0
sS'aggregation'
p54
S'sum'
p55
sbsI1
g0
(g46
g2
Ntp56
Rp57
(dp58
g50
g51
sg52
F-4.018364567795725
sg53
F1.0
sg15
I1
sg54
g55
sbsI2
g0
(g46
g2
Ntp59
Rp60
(dp61
g50
g51
sg52
F-0.18435299617694006
sg53
F1.0
sg15
I2
sg54
g55
sbsI3
g0
(g46
g2
Ntp62
Rp63
(dp64
g50
g51
sg52
F-0.4236489109613812
sg53
F1.0
sg15
I3
sg54
g55
sbsI77322
g0
(g46
g2
Ntp65
Rp66
(dp67
g50
g51
sg52
F-4.569436297305334
sg53
F1.0
sg15
I77322
sg54
g55
sbsI91520
g0
(g46
g2
Ntp68
Rp69
(dp70
g50
g51
sg52
F1.443196581591606
sg53
F1.0
sg15
I91520
sg54
g55
sbssg15
I455502
sS'fitness'
p71
cnumpy.core.multiarray
scalar
p72
(cnumpy
dtype
p73
(S'f8'
p74
I0
I1
tp75
Rp76
(I3
S'<'
p77
NNNI-1
I-1
I0
tp78
bS'*x9\x05/\xa7\xf8?'
p79
tp80
Rp81
sb.