ccopy_reg
_reconstructor
p0
(cneat.genome
DefaultGenome
p1
c__builtin__
object
p2
Ntp3
Rp4
(dp5
S'connections'
p6
(dp7
(I-5
I0
tp8
g0
(cneat.genes
DefaultConnectionGene
p9
g2
Ntp10
Rp11
(dp12
S'enabled'
p13
I01
sS'weight'
p14
F-2.7504512931416136
sS'key'
p15
g8
sbs(I1
I92690
tp16
g0
(g9
g2
Ntp17
Rp18
(dp19
g13
I01
sg14
F-0.6695930386469806
sg15
g16
sbs(I-15
I93611
tp20
g0
(g9
g2
Ntp21
Rp22
(dp23
g13
I01
sg14
F1.3025195765528537
sg15
g20
sbs(I-14
I3
tp24
g0
(g9
g2
Ntp25
Rp26
(dp27
g13
I01
sg14
F-0.7577225260330669
sg15
g24
sbs(I92690
I2
tp28
g0
(g9
g2
Ntp29
Rp30
(dp31
g13
I01
sg14
F3.5378121779122083
sg15
g28
sbs(I93611
I1
tp32
g0
(g9
g2
Ntp33
Rp34
(dp35
g13
I01
sg14
F0.3716122130263103
sg15
g32
sbs(I93611
I3
tp36
g0
(g9
g2
Ntp37
Rp38
(dp39
g13
I01
sg14
F2.0389302676441603
sg15
g36
sbs(I-9
I2
tp40
g0
(g9
g2
Ntp41
Rp42
(dp43
g13
I01
sg14
F7.1707585532979685
sg15
g40
sbs(I80643
I1
tp44
g0
(g9
g2
Ntp45
Rp46
(dp47
g13
I01
sg14
F19.230785128317564
sg15
g44
sbs(I-15
I3
tp48
g0
(g9
g2
Ntp49
Rp50
(dp51
g13
I00
sg14
F2.657756069523321
sg15
g48
sbs(I-1
I92690
tp52
g0
(g9
g2
Ntp53
Rp54
(dp55
g13
I01
sg14
F-1.5749100839591743
sg15
g52
sbs(I93247
I3
tp56
g0
(g9
g2
Ntp57
Rp58
(dp59
g13
I00
sg14
F3.773026882820871
sg15
g56
sbs(I-7
I80643
tp60
g0
(g9
g2
Ntp61
Rp62
(dp63
g13
I01
sg14
F2.368347237353198
sg15
g60
sbssS'nodes'
p64
(dp65
I0
g0
(cneat.genes
DefaultNodeGene
p66
g2
Ntp67
Rp68
(dp69
S'activation'
p70
S'sigmoid'
p71
sS'bias'
p72
F0.7482759315566964
sS'response'
p73
F1.0
sg15
I0
sS'aggregation'
p74
S'sum'
p75
sbsI1
g0
(g66
g2
Ntp76
Rp77
(dp78
g70
g71
sg72
F-15.541377735576798
sg73
F1.0
sg15
I1
sg74
g75
sbsI2
g0
(g66
g2
Ntp79
Rp80
(dp81
g70
g71
sg72
F-13.669803942740744
sg73
F1.0
sg15
I2
sg74
g75
sbsI3
g0
(g66
g2
Ntp82
Rp83
(dp84
g70
g71
sg72
F-4.2671356193127
sg73
F1.0
sg15
I3
sg74
g75
sbsI93611
g0
(g66
g2
Ntp85
Rp86
(dp87
g70
g71
sg72
F-1.7651912543288784
sg73
F1.0
sg15
I93611
sg74
g75
sbsI92690
g0
(g66
g2
Ntp88
Rp89
(dp90
g70
g71
sg72
F-0.008165210293162084
sg73
F1.0
sg15
I92690
sg74
g75
sbsI80643
g0
(g66
g2
Ntp91
Rp92
(dp93
g70
g71
sg72
F-1.2227140521612991
sg73
F1.0
sg15
I80643
sg74
g75
sbsI93247
g0
(g66
g2
Ntp94
Rp95
(dp96
g70
g71
sg72
F1.2334103743744305
sg73
F1.0
sg15
I93247
sg74
g75
sbssg15
I464133
sS'fitness'
p97
cnumpy.core.multiarray
scalar
p98
(cnumpy
dtype
p99
(S'f8'
p100
I0
I1
tp101
Rp102
(I3
S'<'
p103
NNNI-1
I-1
I0
tp104
bS'\xb2>4\xd6\x87\xc6\xf4?'
p105
tp106
Rp107
sb.