ccopy_reg
_reconstructor
p0
(cneat.genome
DefaultGenome
p1
c__builtin__
object
p2
Ntp3
Rp4
(dp5
S'connections'
p6
(dp7
(I-9
I91134
tp8
g0
(cneat.genes
DefaultConnectionGene
p9
g2
Ntp10
Rp11
(dp12
S'enabled'
p13
I01
sS'weight'
p14
F1.2361716481645213
sS'key'
p15
g8
sbs(I-14
I2
tp16
g0
(g9
g2
Ntp17
Rp18
(dp19
g13
I01
sg14
F-5.548585007981215
sg15
g16
sbs(I-9
I88558
tp20
g0
(g9
g2
Ntp21
Rp22
(dp23
g13
I01
sg14
F-0.03682215565479596
sg15
g20
sbs(I-9
I1
tp24
g0
(g9
g2
Ntp25
Rp26
(dp27
g13
I01
sg14
F-11.738387681705703
sg15
g24
sbs(I-16
I88558
tp28
g0
(g9
g2
Ntp29
Rp30
(dp31
g13
I01
sg14
F0.06289740027865065
sg15
g28
sbs(I-8
I0
tp32
g0
(g9
g2
Ntp33
Rp34
(dp35
g13
I01
sg14
F11.414973252238147
sg15
g32
sbs(I-5
I3
tp36
g0
(g9
g2
Ntp37
Rp38
(dp39
g13
I01
sg14
F17.530385535214034
sg15
g36
sbssS'nodes'
p40
(dp41
I0
g0
(cneat.genes
DefaultNodeGene
p42
g2
Ntp43
Rp44
(dp45
S'activation'
p46
S'sigmoid'
p47
sS'bias'
p48
F-0.5620939303263445
sS'response'
p49
F1.0
sg15
I0
sS'aggregation'
p50
S'sum'
p51
sbsI1
g0
(g42
g2
Ntp52
Rp53
(dp54
g46
g47
sg48
F15.348949616954034
sg49
F1.0
sg15
I1
sg50
g51
sbsI2
g0
(g42
g2
Ntp55
Rp56
(dp57
g46
g47
sg48
F1.7936963476591656
sg49
F1.0
sg15
I2
sg50
g51
sbsI3
g0
(g42
g2
Ntp58
Rp59
(dp60
g46
g47
sg48
F-2.8194576218183833
sg49
F1.0
sg15
I3
sg50
g51
sbsI88558
g0
(g42
g2
Ntp61
Rp62
(dp63
g46
g47
sg48
F-1.4486264203477366
sg49
F1.0
sg15
I88558
sg50
g51
sbsI91134
g0
(g42
g2
Ntp64
Rp65
(dp66
g46
g47
sg48
F-0.035283852939738784
sg49
F1.0
sg15
I91134
sg50
g51
sbsI90047
g0
(g42
g2
Ntp67
Rp68
(dp69
g46
g47
sg48
F-1.7777482531323185
sg49
F1.0
sg15
I90047
sg50
g51
sbssg15
I453648
sS'fitness'
p70
cnumpy.core.multiarray
scalar
p71
(cnumpy
dtype
p72
(S'f8'
p73
I0
I1
tp74
Rp75
(I3
S'<'
p76
NNNI-1
I-1
I0
tp77
bS'\xf6\xa1\xb1>4V\x0e@'
p78
tp79
Rp80
sb.