ccopy_reg
_reconstructor
p0
(cneat.genome
DefaultGenome
p1
c__builtin__
object
p2
Ntp3
Rp4
(dp5
S'connections'
p6
(dp7
(I-13
I91046
tp8
g0
(cneat.genes
DefaultConnectionGene
p9
g2
Ntp10
Rp11
(dp12
S'enabled'
p13
I01
sS'weight'
p14
F0.44932898378747455
sS'key'
p15
g8
sbs(I-14
I90287
tp16
g0
(g9
g2
Ntp17
Rp18
(dp19
g13
I00
sg14
F0.7055547307260089
sg15
g16
sbs(I-14
I89477
tp20
g0
(g9
g2
Ntp21
Rp22
(dp23
g13
I00
sg14
F-0.27468046610340785
sg15
g20
sbs(I92284
I90505
tp24
g0
(g9
g2
Ntp25
Rp26
(dp27
g13
I01
sg14
F-0.29339375793842953
sg15
g24
sbs(I-2
I89477
tp28
g0
(g9
g2
Ntp29
Rp30
(dp31
g13
I01
sg14
F3.4855900345749458
sg15
g28
sbs(I-13
I92284
tp32
g0
(g9
g2
Ntp33
Rp34
(dp35
g13
I01
sg14
F1.0375160525655809
sg15
g32
sbs(I2
I90245
tp36
g0
(g9
g2
Ntp37
Rp38
(dp39
g13
I01
sg14
F-1.9770333504260718
sg15
g36
sbs(I92426
I3
tp40
g0
(g9
g2
Ntp41
Rp42
(dp43
g13
I01
sg14
F1.8261509403700675
sg15
g40
sbs(I-13
I92426
tp44
g0
(g9
g2
Ntp45
Rp46
(dp47
g13
I01
sg14
F-0.22290466961905664
sg15
g44
sbs(I-9
I91827
tp48
g0
(g9
g2
Ntp49
Rp50
(dp51
g13
I01
sg14
F-1.7732378542823586
sg15
g48
sbs(I-14
I2
tp52
g0
(g9
g2
Ntp53
Rp54
(dp55
g13
I01
sg14
F-1.7406425301225759
sg15
g52
sbs(I92540
I90287
tp56
g0
(g9
g2
Ntp57
Rp58
(dp59
g13
I01
sg14
F-0.3010325186959353
sg15
g56
sbs(I-9
I1
tp60
g0
(g9
g2
Ntp61
Rp62
(dp63
g13
I01
sg14
F-8.249335813383794
sg15
g60
sbs(I90287
I89477
tp64
g0
(g9
g2
Ntp65
Rp66
(dp67
g13
I01
sg14
F2.8513525094658667
sg15
g64
sbs(I92426
I90915
tp68
g0
(g9
g2
Ntp69
Rp70
(dp71
g13
I01
sg14
F0.37203586294224367
sg15
g68
sbs(I-4
I91046
tp72
g0
(g9
g2
Ntp73
Rp74
(dp75
g13
I00
sg14
F2.3041942029489224
sg15
g72
sbs(I90287
I91418
tp76
g0
(g9
g2
Ntp77
Rp78
(dp79
g13
I01
sg14
F0.6648137393459432
sg15
g76
sbs(I-5
I0
tp80
g0
(g9
g2
Ntp81
Rp82
(dp83
g13
I01
sg14
F0.8412538698809615
sg15
g80
sbs(I-4
I91634
tp84
g0
(g9
g2
Ntp85
Rp86
(dp87
g13
I01
sg14
F-1.265464280224851
sg15
g84
sbs(I-13
I90505
tp88
g0
(g9
g2
Ntp89
Rp90
(dp91
g13
I01
sg14
F0.958278907286321
sg15
g88
sbs(I-14
I3
tp92
g0
(g9
g2
Ntp93
Rp94
(dp95
g13
I01
sg14
F-1.6228936569755852
sg15
g92
sbs(I91418
I90505
tp96
g0
(g9
g2
Ntp97
Rp98
(dp99
g13
I01
sg14
F-1.6023296215286658
sg15
g96
sbs(I-8
I3
tp100
g0
(g9
g2
Ntp101
Rp102
(dp103
g13
I01
sg14
F1.5046621742619333
sg15
g100
sbs(I91634
I91046
tp104
g0
(g9
g2
Ntp105
Rp106
(dp107
g13
I00
sg14
F-0.5465717792871462
sg15
g104
sbs(I0
I89477
tp108
g0
(g9
g2
Ntp109
Rp110
(dp111
g13
I00
sg14
F0.14403870446703482
sg15
g108
sbs(I-4
I0
tp112
g0
(g9
g2
Ntp113
Rp114
(dp115
g13
I01
sg14
F1.6539976579423694
sg15
g112
sbs(I-7
I90915
tp116
g0
(g9
g2
Ntp117
Rp118
(dp119
g13
I01
sg14
F0.11717710527586822
sg15
g116
sbs(I-5
I3
tp120
g0
(g9
g2
Ntp121
Rp122
(dp123
g13
I01
sg14
F8.817959106453316
sg15
g120
sbs(I-5
I91418
tp124
g0
(g9
g2
Ntp125
Rp126
(dp127
g13
I01
sg14
F0.1405767337741456
sg15
g124
sbs(I-14
I91486
tp128
g0
(g9
g2
Ntp129
Rp130
(dp131
g13
I00
sg14
F0.411922342727909
sg15
g128
sbs(I91046
I88832
tp132
g0
(g9
g2
Ntp133
Rp134
(dp135
g13
I01
sg14
F-4.282929243621669
sg15
g132
sbs(I2
I88832
tp136
g0
(g9
g2
Ntp137
Rp138
(dp139
g13
I00
sg14
F0.22976705224017926
sg15
g136
sbs(I91418
I89477
tp140
g0
(g9
g2
Ntp141
Rp142
(dp143
g13
I01
sg14
F0.2347567875862165
sg15
g140
sbs(I-13
I90915
tp144
g0
(g9
g2
Ntp145
Rp146
(dp147
g13
I00
sg14
F1.4612417529951527
sg15
g144
sbs(I-8
I0
tp148
g0
(g9
g2
Ntp149
Rp150
(dp151
g13
I01
sg14
F1.9422843839236905
sg15
g148
sbssS'nodes'
p152
(dp153
I0
g0
(cneat.genes
DefaultNodeGene
p154
g2
Ntp155
Rp156
(dp157
S'activation'
p158
S'sigmoid'
p159
sS'bias'
p160
F0.46073734327998295
sS'response'
p161
F1.0
sg15
I0
sS'aggregation'
p162
S'sum'
p163
sbsI1
g0
(g154
g2
Ntp164
Rp165
(dp166
g158
g159
sg160
F12.886587989615155
sg161
F1.0
sg15
I1
sg162
g163
sbsI2
g0
(g154
g2
Ntp167
Rp168
(dp169
g158
g159
sg160
F2.039632615433831
sg161
F1.0
sg15
I2
sg162
g163
sbsI3
g0
(g154
g2
Ntp170
Rp171
(dp172
g158
g159
sg160
F-0.281751154780004
sg161
F1.0
sg15
I3
sg162
g163
sbsI89477
g0
(g154
g2
Ntp173
Rp174
(dp175
g158
g159
sg160
F-1.8808414400155833
sg161
F1.0
sg15
I89477
sg162
g163
sbsI91046
g0
(g154
g2
Ntp176
Rp177
(dp178
g158
g159
sg160
F-0.5165956950972802
sg161
F1.0
sg15
I91046
sg162
g163
sbsI90505
g0
(g154
g2
Ntp179
Rp180
(dp181
g158
g159
sg160
F-0.025747006687031893
sg161
F1.0
sg15
I90505
sg162
g163
sbsI92426
g0
(g154
g2
Ntp182
Rp183
(dp184
g158
g159
sg160
F-0.6980409452465501
sg161
F1.0
sg15
I92426
sg162
g163
sbsI88832
g0
(g154
g2
Ntp185
Rp186
(dp187
g158
g159
sg160
F2.8128257116549022
sg161
F1.0
sg15
I88832
sg162
g163
sbsI89518
g0
(g154
g2
Ntp188
Rp189
(dp190
g158
g159
sg160
F-0.44414984436515587
sg161
F1.0
sg15
I89518
sg162
g163
sbsI90287
g0
(g154
g2
Ntp191
Rp192
(dp193
g158
g159
sg160
F-0.017660368837032498
sg161
F1.0
sg15
I90287
sg162
g163
sbsI91634
g0
(g154
g2
Ntp194
Rp195
(dp196
g158
g159
sg160
F-0.9307635017784623
sg161
F1.0
sg15
I91634
sg162
g163
sbsI90915
g0
(g154
g2
Ntp197
Rp198
(dp199
g158
g159
sg160
F-0.41034791434996815
sg161
F1.0
sg15
I90915
sg162
g163
sbsI91827
g0
(g154
g2
Ntp200
Rp201
(dp202
g158
g159
sg160
F0.8845649102120849
sg161
F1.0
sg15
I91827
sg162
g163
sbsI92540
g0
(g154
g2
Ntp203
Rp204
(dp205
g158
g159
sg160
F-2.1392598983450486
sg161
F1.0
sg15
I92540
sg162
g163
sbsI91418
g0
(g154
g2
Ntp206
Rp207
(dp208
g158
g159
sg160
F0.05592220487643118
sg161
F1.0
sg15
I91418
sg162
g163
sbsI87739
g0
(g154
g2
Ntp209
Rp210
(dp211
g158
g159
sg160
F-0.715858979596246
sg161
F1.0
sg15
I87739
sg162
g163
sbsI92284
g0
(g154
g2
Ntp212
Rp213
(dp214
g158
g159
sg160
F1.0499167594518863
sg161
F1.0
sg15
I92284
sg162
g163
sbsI91486
g0
(g154
g2
Ntp215
Rp216
(dp217
g158
g159
sg160
F-0.4745473147531968
sg161
F1.0
sg15
I91486
sg162
g163
sbsI90245
g0
(g154
g2
Ntp218
Rp219
(dp220
g158
g159
sg160
F0.16779463586731688
sg161
F1.0
sg15
I90245
sg162
g163
sbssg15
I460790
sS'fitness'
p221
cnumpy.core.multiarray
scalar
p222
(cnumpy
dtype
p223
(S'f8'
p224
I0
I1
tp225
Rp226
(I3
S'<'
p227
NNNI-1
I-1
I0
tp228
bS'\x9c\x82\x97S\xf02\x15@'
p229
tp230
Rp231
sb.