ccopy_reg
_reconstructor
p0
(cneat.genome
DefaultGenome
p1
c__builtin__
object
p2
Ntp3
Rp4
(dp5
S'connections'
p6
(dp7
(I-3
I91590
tp8
g0
(cneat.genes
DefaultConnectionGene
p9
g2
Ntp10
Rp11
(dp12
S'enabled'
p13
I01
sS'weight'
p14
F1.4167966542095987
sS'key'
p15
g8
sbs(I86864
I91590
tp16
g0
(g9
g2
Ntp17
Rp18
(dp19
g13
I01
sg14
F-1.7203397623499224
sg15
g16
sbs(I-16
I3
tp20
g0
(g9
g2
Ntp21
Rp22
(dp23
g13
I01
sg14
F0.664611978866792
sg15
g20
sbs(I-9
I2
tp24
g0
(g9
g2
Ntp25
Rp26
(dp27
g13
I01
sg14
F18.434389211907714
sg15
g24
sbs(I92720
I1
tp28
g0
(g9
g2
Ntp29
Rp30
(dp31
g13
I01
sg14
F-2.2050318496856036
sg15
g28
sbs(I91590
I92194
tp32
g0
(g9
g2
Ntp33
Rp34
(dp35
g13
I01
sg14
F0.7508890554608436
sg15
g32
sbs(I1
I91977
tp36
g0
(g9
g2
Ntp37
Rp38
(dp39
g13
I01
sg14
F0.3913840738294928
sg15
g36
sbs(I91590
I90479
tp40
g0
(g9
g2
Ntp41
Rp42
(dp43
g13
I01
sg14
F-2.062448615637525
sg15
g40
sbs(I-12
I86864
tp44
g0
(g9
g2
Ntp45
Rp46
(dp47
g13
I00
sg14
F2.5463312524000714
sg15
g44
sbs(I-1
I1
tp48
g0
(g9
g2
Ntp49
Rp50
(dp51
g13
I00
sg14
F-2.7376547896514207
sg15
g48
sbs(I-16
I86864
tp52
g0
(g9
g2
Ntp53
Rp54
(dp55
g13
I01
sg14
F0.9800219608734668
sg15
g52
sbs(I-16
I0
tp56
g0
(g9
g2
Ntp57
Rp58
(dp59
g13
I00
sg14
F-2.387696373538712
sg15
g56
sbs(I-9
I1
tp60
g0
(g9
g2
Ntp61
Rp62
(dp63
g13
I01
sg14
F-12.246588582459038
sg15
g60
sbs(I-10
I0
tp64
g0
(g9
g2
Ntp65
Rp66
(dp67
g13
I01
sg14
F-2.1203491266889096
sg15
g64
sbs(I-12
I91373
tp68
g0
(g9
g2
Ntp69
Rp70
(dp71
g13
I01
sg14
F-0.06850409445627925
sg15
g68
sbs(I-12
I2
tp72
g0
(g9
g2
Ntp73
Rp74
(dp75
g13
I01
sg14
F-19.294948487597836
sg15
g72
sbs(I91373
I86864
tp76
g0
(g9
g2
Ntp77
Rp78
(dp79
g13
I00
sg14
F-0.6106721276695307
sg15
g76
sbs(I-11
I3
tp80
g0
(g9
g2
Ntp81
Rp82
(dp83
g13
I01
sg14
F-5.531620017857655
sg15
g80
sbs(I-1
I92720
tp84
g0
(g9
g2
Ntp85
Rp86
(dp87
g13
I01
sg14
F1.1558567432281013
sg15
g84
sbs(I1
I86864
tp88
g0
(g9
g2
Ntp89
Rp90
(dp91
g13
I00
sg14
F0.3070949813058278
sg15
g88
sbs(I91977
I86864
tp92
g0
(g9
g2
Ntp93
Rp94
(dp95
g13
I00
sg14
F-1.1810055093725054
sg15
g92
sbs(I3
I91590
tp96
g0
(g9
g2
Ntp97
Rp98
(dp99
g13
I01
sg14
F0.9232055491845691
sg15
g96
sbs(I92194
I90479
tp100
g0
(g9
g2
Ntp101
Rp102
(dp103
g13
I01
sg14
F-0.8721425080562621
sg15
g100
sbs(I-5
I91977
tp104
g0
(g9
g2
Ntp105
Rp106
(dp107
g13
I01
sg14
F-0.6827936367314295
sg15
g104
sbssS'nodes'
p108
(dp109
I0
g0
(cneat.genes
DefaultNodeGene
p110
g2
Ntp111
Rp112
(dp113
S'activation'
p114
S'sigmoid'
p115
sS'bias'
p116
F1.2528676582021603
sS'response'
p117
F1.0
sg15
I0
sS'aggregation'
p118
S'sum'
p119
sbsI1
g0
(g110
g2
Ntp120
Rp121
(dp122
g114
g115
sg116
F2.10185897380456
sg117
F1.0
sg15
I1
sg118
g119
sbsI2
g0
(g110
g2
Ntp123
Rp124
(dp125
g114
g115
sg116
F0.1596088472421772
sg117
F1.0
sg15
I2
sg118
g119
sbsI3
g0
(g110
g2
Ntp126
Rp127
(dp128
g114
g115
sg116
F-1.0770188375248055
sg117
F1.0
sg15
I3
sg118
g119
sbsI91590
g0
(g110
g2
Ntp129
Rp130
(dp131
g114
g115
sg116
F4.059860410686364
sg117
F1.0
sg15
I91590
sg118
g119
sbsI91977
g0
(g110
g2
Ntp132
Rp133
(dp134
g114
g115
sg116
F-1.5965282963818692
sg117
F1.0
sg15
I91977
sg118
g119
sbsI92194
g0
(g110
g2
Ntp135
Rp136
(dp137
g114
g115
sg116
F-0.14136839071566076
sg117
F1.0
sg15
I92194
sg118
g119
sbsI91373
g0
(g110
g2
Ntp138
Rp139
(dp140
g114
g115
sg116
F-1.480204868864637
sg117
F1.0
sg15
I91373
sg118
g119
sbsI86864
g0
(g110
g2
Ntp141
Rp142
(dp143
g114
g115
sg116
F-0.1700490142425185
sg117
F1.0
sg15
I86864
sg118
g119
sbsI90479
g0
(g110
g2
Ntp144
Rp145
(dp146
g114
g115
sg116
F-0.9310017892713421
sg117
F1.0
sg15
I90479
sg118
g119
sbsI92720
g0
(g110
g2
Ntp147
Rp148
(dp149
g114
g115
sg116
F-1.2477432418363605
sg117
F1.0
sg15
I92720
sg118
g119
sbssg15
I461869
sS'fitness'
p150
cnumpy.core.multiarray
scalar
p151
(cnumpy
dtype
p152
(S'f8'
p153
I0
I1
tp154
Rp155
(I3
S'<'
p156
NNNI-1
I-1
I0
tp157
bS'\x00\x00\x00\x00\x00\x00\x08@'
p158
tp159
Rp160
sb.