ccopy_reg
_reconstructor
p0
(cneat.genome
DefaultGenome
p1
c__builtin__
object
p2
Ntp3
Rp4
(dp5
S'connections'
p6
(dp7
(I-6
I93400
tp8
g0
(cneat.genes
DefaultConnectionGene
p9
g2
Ntp10
Rp11
(dp12
S'enabled'
p13
I01
sS'weight'
p14
F-0.9485931308847285
sS'key'
p15
g8
sbs(I-10
I93400
tp16
g0
(g9
g2
Ntp17
Rp18
(dp19
g13
I01
sg14
F0.9437363778199691
sg15
g16
sbs(I91454
I3
tp20
g0
(g9
g2
Ntp21
Rp22
(dp23
g13
I00
sg14
F-1.3912438152660562
sg15
g20
sbs(I-6
I0
tp24
g0
(g9
g2
Ntp25
Rp26
(dp27
g13
I00
sg14
F-0.38047225407589325
sg15
g24
sbs(I-14
I93102
tp28
g0
(g9
g2
Ntp29
Rp30
(dp31
g13
I01
sg14
F-0.10354507259479773
sg15
g28
sbs(I-15
I91454
tp32
g0
(g9
g2
Ntp33
Rp34
(dp35
g13
I00
sg14
F-1.4047688078794014
sg15
g32
sbs(I0
I93899
tp36
g0
(g9
g2
Ntp37
Rp38
(dp39
g13
I01
sg14
F2.0887213696408526
sg15
g36
sbs(I-9
I2
tp40
g0
(g9
g2
Ntp41
Rp42
(dp43
g13
I01
sg14
F7.213921090374699
sg15
g40
sbs(I94022
I3
tp44
g0
(g9
g2
Ntp45
Rp46
(dp47
g13
I01
sg14
F-0.8567303433362834
sg15
g44
sbs(I93102
I1
tp48
g0
(g9
g2
Ntp49
Rp50
(dp51
g13
I01
sg14
F-1.118707780109239
sg15
g48
sbs(I-7
I1
tp52
g0
(g9
g2
Ntp53
Rp54
(dp55
g13
I01
sg14
F6.418840508358314
sg15
g52
sbs(I93899
I90610
tp56
g0
(g9
g2
Ntp57
Rp58
(dp59
g13
I00
sg14
F0.5487184771117092
sg15
g56
sbs(I93400
I0
tp60
g0
(g9
g2
Ntp61
Rp62
(dp63
g13
I01
sg14
F0.014688996044625924
sg15
g60
sbs(I-10
I91454
tp64
g0
(g9
g2
Ntp65
Rp66
(dp67
g13
I00
sg14
F-0.5816374544387836
sg15
g64
sbssS'nodes'
p68
(dp69
I0
g0
(cneat.genes
DefaultNodeGene
p70
g2
Ntp71
Rp72
(dp73
S'activation'
p74
S'sigmoid'
p75
sS'bias'
p76
F2.269917998313426
sS'response'
p77
F1.0
sg15
I0
sS'aggregation'
p78
S'sum'
p79
sbsI1
g0
(g70
g2
Ntp80
Rp81
(dp82
g74
g75
sg76
F-0.2993722363705655
sg77
F1.0
sg15
I1
sg78
g79
sbsI2
g0
(g70
g2
Ntp83
Rp84
(dp85
g74
g75
sg76
F-11.416482804080003
sg77
F1.0
sg15
I2
sg78
g79
sbsI3
g0
(g70
g2
Ntp86
Rp87
(dp88
g74
g75
sg76
F0.5064422083960927
sg77
F1.0
sg15
I3
sg78
g79
sbsI94022
g0
(g70
g2
Ntp89
Rp90
(dp91
g74
g75
sg76
F2.2137872504430036
sg77
F1.0
sg15
I94022
sg78
g79
sbsI93899
g0
(g70
g2
Ntp92
Rp93
(dp94
g74
g75
sg76
F-0.47865924386622094
sg77
F1.0
sg15
I93899
sg78
g79
sbsI93102
g0
(g70
g2
Ntp95
Rp96
(dp97
g74
g75
sg76
F3.152414830571673
sg77
F1.0
sg15
I93102
sg78
g79
sbsI90610
g0
(g70
g2
Ntp98
Rp99
(dp100
g74
g75
sg76
F0.44381031424367223
sg77
F1.0
sg15
I90610
sg78
g79
sbsI93207
g0
(g70
g2
Ntp101
Rp102
(dp103
g74
g75
sg76
F-0.803992858523396
sg77
F1.0
sg15
I93207
sg78
g79
sbsI93400
g0
(g70
g2
Ntp104
Rp105
(dp106
g74
g75
sg76
F1.3978060229418459
sg77
F1.0
sg15
I93400
sg78
g79
sbsI91454
g0
(g70
g2
Ntp107
Rp108
(dp109
g74
g75
sg76
F-0.46557746927464366
sg77
F1.0
sg15
I91454
sg78
g79
sbssg15
I470908
sS'fitness'
p110
cnumpy.core.multiarray
scalar
p111
(cnumpy
dtype
p112
(S'f8'
p113
I0
I1
tp114
Rp115
(I3
S'<'
p116
NNNI-1
I-1
I0
tp117
bS'\x1a\xebCc}h\xfc?'
p118
tp119
Rp120
sb.