ccopy_reg
_reconstructor
p0
(cneat.genome
DefaultGenome
p1
c__builtin__
object
p2
Ntp3
Rp4
(dp5
S'connections'
p6
(dp7
(I92332
I0
tp8
g0
(cneat.genes
DefaultConnectionGene
p9
g2
Ntp10
Rp11
(dp12
S'enabled'
p13
I00
sS'weight'
p14
F0.5308005979324331
sS'key'
p15
g8
sbs(I-13
I93319
tp16
g0
(g9
g2
Ntp17
Rp18
(dp19
g13
I01
sg14
F2.1239600951352933
sg15
g16
sbs(I93319
I88278
tp20
g0
(g9
g2
Ntp21
Rp22
(dp23
g13
I01
sg14
F-0.06016679240883546
sg15
g20
sbs(I-1
I91207
tp24
g0
(g9
g2
Ntp25
Rp26
(dp27
g13
I01
sg14
F0.48331352095261026
sg15
g24
sbs(I-14
I92332
tp28
g0
(g9
g2
Ntp29
Rp30
(dp31
g13
I00
sg14
F-0.18128549363608293
sg15
g28
sbs(I91207
I92173
tp32
g0
(g9
g2
Ntp33
Rp34
(dp35
g13
I01
sg14
F0.01911878117147725
sg15
g32
sbs(I2
I92173
tp36
g0
(g9
g2
Ntp37
Rp38
(dp39
g13
I01
sg14
F-0.9439971244769475
sg15
g36
sbs(I-8
I2
tp40
g0
(g9
g2
Ntp41
Rp42
(dp43
g13
I01
sg14
F-6.9397828570410125
sg15
g40
sbs(I-13
I88278
tp44
g0
(g9
g2
Ntp45
Rp46
(dp47
g13
I00
sg14
F-0.4240145928686877
sg15
g44
sbs(I-9
I1
tp48
g0
(g9
g2
Ntp49
Rp50
(dp51
g13
I01
sg14
F-11.03626714085791
sg15
g48
sbs(I-16
I91982
tp52
g0
(g9
g2
Ntp53
Rp54
(dp55
g13
I01
sg14
F0.04614605538154781
sg15
g52
sbs(I-16
I91207
tp56
g0
(g9
g2
Ntp57
Rp58
(dp59
g13
I00
sg14
F-0.9134668893002404
sg15
g56
sbs(I-1
I2
tp60
g0
(g9
g2
Ntp61
Rp62
(dp63
g13
I01
sg14
F0.13944930135150022
sg15
g60
sbs(I-16
I1
tp64
g0
(g9
g2
Ntp65
Rp66
(dp67
g13
I00
sg14
F-2.112676966624474
sg15
g64
sbs(I-3
I1
tp68
g0
(g9
g2
Ntp69
Rp70
(dp71
g13
I01
sg14
F-2.3533730437543228
sg15
g68
sbs(I92332
I91504
tp72
g0
(g9
g2
Ntp73
Rp74
(dp75
g13
I01
sg14
F2.097102420943789
sg15
g72
sbs(I91504
I92173
tp76
g0
(g9
g2
Ntp77
Rp78
(dp79
g13
I01
sg14
F0.5780761900332274
sg15
g76
sbs(I-5
I3
tp80
g0
(g9
g2
Ntp81
Rp82
(dp83
g13
I01
sg14
F12.097641059666254
sg15
g80
sbs(I-14
I0
tp84
g0
(g9
g2
Ntp85
Rp86
(dp87
g13
I01
sg14
F6.868892508558302
sg15
g84
sbs(I91982
I91207
tp88
g0
(g9
g2
Ntp89
Rp90
(dp91
g13
I01
sg14
F-0.8960927354241628
sg15
g88
sbs(I91207
I77971
tp92
g0
(g9
g2
Ntp93
Rp94
(dp95
g13
I00
sg14
F-0.5413560838300104
sg15
g92
sbs(I-15
I3
tp96
g0
(g9
g2
Ntp97
Rp98
(dp99
g13
I01
sg14
F7.987123045853768
sg15
g96
sbs(I91207
I91504
tp100
g0
(g9
g2
Ntp101
Rp102
(dp103
g13
I01
sg14
F1.192658117237282
sg15
g100
sbs(I-7
I1
tp104
g0
(g9
g2
Ntp105
Rp106
(dp107
g13
I01
sg14
F18.95151606391543
sg15
g104
sbssS'nodes'
p108
(dp109
I0
g0
(cneat.genes
DefaultNodeGene
p110
g2
Ntp111
Rp112
(dp113
S'activation'
p114
S'sigmoid'
p115
sS'bias'
p116
F-4.377190311989532
sS'response'
p117
F1.0
sg15
I0
sS'aggregation'
p118
S'sum'
p119
sbsI1
g0
(g110
g2
Ntp120
Rp121
(dp122
g114
g115
sg116
F1.4915100851718008
sg117
F1.0
sg15
I1
sg118
g119
sbsI2
g0
(g110
g2
Ntp123
Rp124
(dp125
g114
g115
sg116
F-0.3668504277280308
sg117
F1.0
sg15
I2
sg118
g119
sbsI3
g0
(g110
g2
Ntp126
Rp127
(dp128
g114
g115
sg116
F-4.6706403902477245
sg117
F1.0
sg15
I3
sg118
g119
sbsI89254
g0
(g110
g2
Ntp129
Rp130
(dp131
g114
g115
sg116
F0.8926001212464854
sg117
F1.0
sg15
I89254
sg118
g119
sbsI91207
g0
(g110
g2
Ntp132
Rp133
(dp134
g114
g115
sg116
F-1.103667874706058
sg117
F1.0
sg15
I91207
sg118
g119
sbsI93319
g0
(g110
g2
Ntp135
Rp136
(dp137
g114
g115
sg116
F-2.36572489202011
sg117
F1.0
sg15
I93319
sg118
g119
sbsI92332
g0
(g110
g2
Ntp138
Rp139
(dp140
g114
g115
sg116
F-2.441615293128428
sg117
F1.0
sg15
I92332
sg118
g119
sbsI92173
g0
(g110
g2
Ntp141
Rp142
(dp143
g114
g115
sg116
F-0.48681344011943495
sg117
F1.0
sg15
I92173
sg118
g119
sbsI91982
g0
(g110
g2
Ntp144
Rp145
(dp146
g114
g115
sg116
F-1.2195342601774175
sg117
F1.0
sg15
I91982
sg118
g119
sbsI91504
g0
(g110
g2
Ntp147
Rp148
(dp149
g114
g115
sg116
F-0.03703092308936276
sg117
F1.0
sg15
I91504
sg118
g119
sbsI77971
g0
(g110
g2
Ntp150
Rp151
(dp152
g114
g115
sg116
F0.05247307612692875
sg117
F1.0
sg15
I77971
sg118
g119
sbsI88278
g0
(g110
g2
Ntp153
Rp154
(dp155
g114
g115
sg116
F0.958644824109226
sg117
F1.0
sg15
I88278
sg118
g119
sbssg15
I462318
sS'fitness'
p156
cnumpy.core.multiarray
scalar
p157
(cnumpy
dtype
p158
(S'f8'
p159
I0
I1
tp160
Rp161
(I3
S'<'
p162
NNNI-1
I-1
I0
tp163
bS'\x16\xbc\x9c\x82\x97\x13\x11@'
p164
tp165
Rp166
sb.