ccopy_reg
_reconstructor
p0
(cneat.genome
DefaultGenome
p1
c__builtin__
object
p2
Ntp3
Rp4
(dp5
S'connections'
p6
(dp7
(I-1
I93851
tp8
g0
(cneat.genes
DefaultConnectionGene
p9
g2
Ntp10
Rp11
(dp12
S'enabled'
p13
I01
sS'weight'
p14
F0.45870674221972657
sS'key'
p15
g8
sbs(I-2
I90593
tp16
g0
(g9
g2
Ntp17
Rp18
(dp19
g13
I00
sg14
F0.5890172098545607
sg15
g16
sbs(I-1
I0
tp20
g0
(g9
g2
Ntp21
Rp22
(dp23
g13
I00
sg14
F1.5147824555102862
sg15
g20
sbs(I87369
I3
tp24
g0
(g9
g2
Ntp25
Rp26
(dp27
g13
I01
sg14
F22.02073275952081
sg15
g24
sbs(I93187
I89026
tp28
g0
(g9
g2
Ntp29
Rp30
(dp31
g13
I00
sg14
F0.7758882021979563
sg15
g28
sbs(I94903
I89026
tp32
g0
(g9
g2
Ntp33
Rp34
(dp35
g13
I01
sg14
F-3.2662635597350773
sg15
g32
sbs(I94042
I89026
tp36
g0
(g9
g2
Ntp37
Rp38
(dp39
g13
I00
sg14
F2.1853714685486447
sg15
g36
sbs(I89125
I90126
tp40
g0
(g9
g2
Ntp41
Rp42
(dp43
g13
I01
sg14
F-0.8540124774456047
sg15
g40
sbs(I93851
I94481
tp44
g0
(g9
g2
Ntp45
Rp46
(dp47
g13
I01
sg14
F-1.1125773435973563
sg15
g44
sbs(I-13
I93187
tp48
g0
(g9
g2
Ntp49
Rp50
(dp51
g13
I01
sg14
F0.6384315414759089
sg15
g48
sbs(I93851
I93800
tp52
g0
(g9
g2
Ntp53
Rp54
(dp55
g13
I01
sg14
F-0.05563910522631227
sg15
g52
sbs(I93187
I94042
tp56
g0
(g9
g2
Ntp57
Rp58
(dp59
g13
I00
sg14
F-0.23818441067676788
sg15
g56
sbs(I-11
I94540
tp60
g0
(g9
g2
Ntp61
Rp62
(dp63
g13
I01
sg14
F0.812952830821343
sg15
g60
sbs(I94481
I93800
tp64
g0
(g9
g2
Ntp65
Rp66
(dp67
g13
I01
sg14
F1.2472291525390615
sg15
g64
sbs(I3
I94540
tp68
g0
(g9
g2
Ntp69
Rp70
(dp71
g13
I01
sg14
F2.115894518496202
sg15
g68
sbs(I-14
I2
tp72
g0
(g9
g2
Ntp73
Rp74
(dp75
g13
I01
sg14
F-2.2942223272955427
sg15
g72
sbs(I94042
I94903
tp76
g0
(g9
g2
Ntp77
Rp78
(dp79
g13
I01
sg14
F-1.8455841968737157
sg15
g76
sbs(I-10
I94481
tp80
g0
(g9
g2
Ntp81
Rp82
(dp83
g13
I01
sg14
F-0.7105855190590993
sg15
g80
sbs(I-14
I94042
tp84
g0
(g9
g2
Ntp85
Rp86
(dp87
g13
I01
sg14
F2.3018916468051245
sg15
g84
sbs(I-16
I0
tp88
g0
(g9
g2
Ntp89
Rp90
(dp91
g13
I00
sg14
F0.16385564351972323
sg15
g88
sbs(I3
I93851
tp92
g0
(g9
g2
Ntp93
Rp94
(dp95
g13
I01
sg14
F0.04086730036091324
sg15
g92
sbs(I-10
I92478
tp96
g0
(g9
g2
Ntp97
Rp98
(dp99
g13
I01
sg14
F-0.23842715973503642
sg15
g96
sbs(I493
I1
tp100
g0
(g9
g2
Ntp101
Rp102
(dp103
g13
I01
sg14
F5.582035777658865
sg15
g100
sbs(I493
I90126
tp104
g0
(g9
g2
Ntp105
Rp106
(dp107
g13
I01
sg14
F0.8780163345090686
sg15
g104
sbs(I-9
I493
tp108
g0
(g9
g2
Ntp109
Rp110
(dp111
g13
I01
sg14
F-9.359436923097102
sg15
g108
sbs(I92478
I93800
tp112
g0
(g9
g2
Ntp113
Rp114
(dp115
g13
I00
sg14
F0.286434158607486
sg15
g112
sbs(I-7
I93800
tp116
g0
(g9
g2
Ntp117
Rp118
(dp119
g13
I01
sg14
F-1.139414960819666
sg15
g116
sbs(I93233
I89026
tp120
g0
(g9
g2
Ntp121
Rp122
(dp123
g13
I01
sg14
F1.517022269566156
sg15
g120
sbs(I-8
I0
tp124
g0
(g9
g2
Ntp125
Rp126
(dp127
g13
I01
sg14
F4.919454347578625
sg15
g124
sbs(I3
I493
tp128
g0
(g9
g2
Ntp129
Rp130
(dp131
g13
I00
sg14
F2.0873133405032
sg15
g128
sbs(I-2
I3
tp132
g0
(g9
g2
Ntp133
Rp134
(dp135
g13
I01
sg14
F-1.180990246678048
sg15
g132
sbs(I1
I93851
tp136
g0
(g9
g2
Ntp137
Rp138
(dp139
g13
I01
sg14
F-1.4049376858314526
sg15
g136
sbs(I1
I93233
tp140
g0
(g9
g2
Ntp141
Rp142
(dp143
g13
I01
sg14
F2.0117602549965206
sg15
g140
sbs(I-13
I90895
tp144
g0
(g9
g2
Ntp145
Rp146
(dp147
g13
I01
sg14
F-1.2125762524135237
sg15
g144
sbs(I-13
I89026
tp148
g0
(g9
g2
Ntp149
Rp150
(dp151
g13
I00
sg14
F0.43449785774374095
sg15
g148
sbs(I92478
I89125
tp152
g0
(g9
g2
Ntp153
Rp154
(dp155
g13
I01
sg14
F-0.3251653453203356
sg15
g152
sbs(I-5
I87369
tp156
g0
(g9
g2
Ntp157
Rp158
(dp159
g13
I01
sg14
F4.650636365930179
sg15
g156
sbssS'nodes'
p160
(dp161
I0
g0
(cneat.genes
DefaultNodeGene
p162
g2
Ntp163
Rp164
(dp165
S'activation'
p166
S'sigmoid'
p167
sS'bias'
p168
F-2.7728761169997855
sS'response'
p169
F1.0
sg15
I0
sS'aggregation'
p170
S'sum'
p171
sbsI1
g0
(g162
g2
Ntp172
Rp173
(dp174
g166
g167
sg168
F-0.1395804799071212
sg169
F1.0
sg15
I1
sg170
g171
sbsI2
g0
(g162
g2
Ntp175
Rp176
(dp177
g166
g167
sg168
F1.1909213141286488
sg169
F1.0
sg15
I2
sg170
g171
sbsI3
g0
(g162
g2
Ntp178
Rp179
(dp180
g166
g167
sg168
F-4.047975245492917
sg169
F1.0
sg15
I3
sg170
g171
sbsI89125
g0
(g162
g2
Ntp181
Rp182
(dp183
g166
g167
sg168
F-0.6744317670254032
sg169
F1.0
sg15
I89125
sg170
g171
sbsI90593
g0
(g162
g2
Ntp184
Rp185
(dp186
g166
g167
sg168
F0.3832948038623918
sg169
F1.0
sg15
I90593
sg170
g171
sbsI93800
g0
(g162
g2
Ntp187
Rp188
(dp189
g166
g167
sg168
F-1.3792029320113788
sg169
F1.0
sg15
I93800
sg170
g171
sbsI87369
g0
(g162
g2
Ntp190
Rp191
(dp192
g166
g167
sg168
F-1.7453137902421194
sg169
F1.0
sg15
I87369
sg170
g171
sbsI94540
g0
(g162
g2
Ntp193
Rp194
(dp195
g166
g167
sg168
F-1.529597400570879
sg169
F1.0
sg15
I94540
sg170
g171
sbsI493
g0
(g162
g2
Ntp196
Rp197
(dp198
g166
g167
sg168
F13.677020469536767
sg169
F1.0
sg15
I493
sg170
g171
sbsI90126
g0
(g162
g2
Ntp199
Rp200
(dp201
g166
g167
sg168
F-1.630641010852559
sg169
F1.0
sg15
I90126
sg170
g171
sbsI90895
g0
(g162
g2
Ntp202
Rp203
(dp204
g166
g167
sg168
F-0.8729709799928644
sg169
F1.0
sg15
I90895
sg170
g171
sbsI94481
g0
(g162
g2
Ntp205
Rp206
(dp207
g166
g167
sg168
F0.4605076356222967
sg169
F1.0
sg15
I94481
sg170
g171
sbsI93187
g0
(g162
g2
Ntp208
Rp209
(dp210
g166
g167
sg168
F0.647619290892597
sg169
F1.0
sg15
I93187
sg170
g171
sbsI93233
g0
(g162
g2
Ntp211
Rp212
(dp213
g166
g167
sg168
F1.4830628193262207
sg169
F1.0
sg15
I93233
sg170
g171
sbsI89026
g0
(g162
g2
Ntp214
Rp215
(dp216
g166
g167
sg168
F-0.30942473666749304
sg169
F1.0
sg15
I89026
sg170
g171
sbsI94903
g0
(g162
g2
Ntp217
Rp218
(dp219
g166
g167
sg168
F-0.5053185188862712
sg169
F1.0
sg15
I94903
sg170
g171
sbsI94042
g0
(g162
g2
Ntp220
Rp221
(dp222
g166
g167
sg168
F0.6548270389341436
sg169
F1.0
sg15
I94042
sg170
g171
sbsI93851
g0
(g162
g2
Ntp223
Rp224
(dp225
g166
g167
sg168
F-3.443293632676201
sg169
F1.0
sg15
I93851
sg170
g171
sbsI92478
g0
(g162
g2
Ntp226
Rp227
(dp228
g166
g167
sg168
F0.22438927610520729
sg169
F1.0
sg15
I92478
sg170
g171
sbssg15
I470755
sS'fitness'
p229
cnumpy.core.multiarray
scalar
p230
(cnumpy
dtype
p231
(S'f8'
p232
I0
I1
tp233
Rp234
(I3
S'<'
p235
NNNI-1
I-1
I0
tp236
bS'0\xa7\xe0\xe5\x14<\x06@'
p237
tp238
Rp239
sb.