ccopy_reg
_reconstructor
p0
(cneat.genome
DefaultGenome
p1
c__builtin__
object
p2
Ntp3
Rp4
(dp5
S'connections'
p6
(dp7
(I88132
I85930
tp8
g0
(cneat.genes
DefaultConnectionGene
p9
g2
Ntp10
Rp11
(dp12
S'enabled'
p13
I00
sS'weight'
p14
F-0.03960387975153734
sS'key'
p15
g8
sbs(I-5
I1
tp16
g0
(g9
g2
Ntp17
Rp18
(dp19
g13
I01
sg14
F-0.6095650858734762
sg15
g16
sbs(I93099
I88132
tp20
g0
(g9
g2
Ntp21
Rp22
(dp23
g13
I01
sg14
F-3.279035847169466
sg15
g20
sbs(I-16
I85930
tp24
g0
(g9
g2
Ntp25
Rp26
(dp27
g13
I01
sg14
F-0.14750891109250053
sg15
g24
sbs(I-11
I0
tp28
g0
(g9
g2
Ntp29
Rp30
(dp31
g13
I01
sg14
F-4.156302933566892
sg15
g28
sbs(I-14
I2
tp32
g0
(g9
g2
Ntp33
Rp34
(dp35
g13
I01
sg14
F-1.7338385929419662
sg15
g32
sbs(I85930
I80976
tp36
g0
(g9
g2
Ntp37
Rp38
(dp39
g13
I00
sg14
F-1.665475290981319
sg15
g36
sbs(I-10
I80976
tp40
g0
(g9
g2
Ntp41
Rp42
(dp43
g13
I01
sg14
F3.558868831831102
sg15
g40
sbs(I-11
I3
tp44
g0
(g9
g2
Ntp45
Rp46
(dp47
g13
I01
sg14
F-8.530617157344734
sg15
g44
sbs(I-8
I2
tp48
g0
(g9
g2
Ntp49
Rp50
(dp51
g13
I01
sg14
F-2.5266743248594543
sg15
g48
sbs(I85930
I1
tp52
g0
(g9
g2
Ntp53
Rp54
(dp55
g13
I00
sg14
F0.09541993284199102
sg15
g52
sbs(I-9
I1
tp56
g0
(g9
g2
Ntp57
Rp58
(dp59
g13
I01
sg14
F-9.927579076049714
sg15
g56
sbs(I-4
I91350
tp60
g0
(g9
g2
Ntp61
Rp62
(dp63
g13
I01
sg14
F1.5384509374879092
sg15
g60
sbs(I-3
I88132
tp64
g0
(g9
g2
Ntp65
Rp66
(dp67
g13
I01
sg14
F1.042402426210491
sg15
g64
sbs(I-8
I88132
tp68
g0
(g9
g2
Ntp69
Rp70
(dp71
g13
I00
sg14
F-3.3197012479550434
sg15
g68
sbs(I-10
I0
tp72
g0
(g9
g2
Ntp73
Rp74
(dp75
g13
I01
sg14
F-1.9644680400577643
sg15
g72
sbs(I-14
I85930
tp76
g0
(g9
g2
Ntp77
Rp78
(dp79
g13
I01
sg14
F-1.4641448815180416
sg15
g76
sbssS'nodes'
p80
(dp81
I0
g0
(cneat.genes
DefaultNodeGene
p82
g2
Ntp83
Rp84
(dp85
S'activation'
p86
S'sigmoid'
p87
sS'bias'
p88
F0.6887024906046617
sS'response'
p89
F1.0
sg15
I0
sS'aggregation'
p90
S'sum'
p91
sbsI1
g0
(g82
g2
Ntp92
Rp93
(dp94
g86
g87
sg88
F1.310073123312928
sg89
F1.0
sg15
I1
sg90
g91
sbsI2
g0
(g82
g2
Ntp95
Rp96
(dp97
g86
g87
sg88
F-10.806430765960442
sg89
F1.0
sg15
I2
sg90
g91
sbsI3
g0
(g82
g2
Ntp98
Rp99
(dp100
g86
g87
sg88
F0.8081163887986712
sg89
F1.0
sg15
I3
sg90
g91
sbsI88132
g0
(g82
g2
Ntp101
Rp102
(dp103
g86
g87
sg88
F-2.2653838267587108
sg89
F1.0
sg15
I88132
sg90
g91
sbsI85930
g0
(g82
g2
Ntp104
Rp105
(dp106
g86
g87
sg88
F0.29298320653864485
sg89
F1.0
sg15
I85930
sg90
g91
sbsI93099
g0
(g82
g2
Ntp107
Rp108
(dp109
g86
g87
sg88
F1.6248898641807745
sg89
F1.0
sg15
I93099
sg90
g91
sbsI80976
g0
(g82
g2
Ntp110
Rp111
(dp112
g86
g87
sg88
F1.741039232832514
sg89
F1.0
sg15
I80976
sg90
g91
sbsI91350
g0
(g82
g2
Ntp113
Rp114
(dp115
g86
g87
sg88
F0.4421309671824268
sg89
F1.0
sg15
I91350
sg90
g91
sbssg15
I465827
sS'fitness'
p116
cnumpy.core.multiarray
scalar
p117
(cnumpy
dtype
p118
(S'f8'
p119
I0
I1
tp120
Rp121
(I3
S'<'
p122
NNNI-1
I-1
I0
tp123
bS'\xc1\xcb)x9\xe5@@'
p124
tp125
Rp126
sb.