ccopy_reg
_reconstructor
p0
(cneat.genome
DefaultGenome
p1
c__builtin__
object
p2
Ntp3
Rp4
(dp5
S'connections'
p6
(dp7
(I-1
I0
tp8
g0
(cneat.genes
DefaultConnectionGene
p9
g2
Ntp10
Rp11
(dp12
S'enabled'
p13
I00
sS'weight'
p14
F0.21720688143826575
sS'key'
p15
g8
sbs(I-6
I3
tp16
g0
(g9
g2
Ntp17
Rp18
(dp19
g13
I01
sg14
F0.7165122259604142
sg15
g16
sbs(I-9
I2
tp20
g0
(g9
g2
Ntp21
Rp22
(dp23
g13
I01
sg14
F7.290256763408568
sg15
g20
sbs(I-7
I1
tp24
g0
(g9
g2
Ntp25
Rp26
(dp27
g13
I01
sg14
F19.0785727647456
sg15
g24
sbs(I-9
I1
tp28
g0
(g9
g2
Ntp29
Rp30
(dp31
g13
I01
sg14
F-5.979505081821182
sg15
g28
sbs(I70317
I0
tp32
g0
(g9
g2
Ntp33
Rp34
(dp35
g13
I01
sg14
F-0.40115950022307556
sg15
g32
sbs(I69622
I0
tp36
g0
(g9
g2
Ntp37
Rp38
(dp39
g13
I01
sg14
F-1.408650057056696
sg15
g36
sbs(I-1
I70317
tp40
g0
(g9
g2
Ntp41
Rp42
(dp43
g13
I01
sg14
F0.5916672162956083
sg15
g40
sbs(I-12
I69622
tp44
g0
(g9
g2
Ntp45
Rp46
(dp47
g13
I01
sg14
F-1.0807600601416656
sg15
g44
sbssS'nodes'
p48
(dp49
I0
g0
(cneat.genes
DefaultNodeGene
p50
g2
Ntp51
Rp52
(dp53
S'activation'
p54
S'sigmoid'
p55
sS'bias'
p56
F-0.9552804497351849
sS'response'
p57
F1.0
sg15
I0
sS'aggregation'
p58
S'sum'
p59
sbsI1
g0
(g50
g2
Ntp60
Rp61
(dp62
g54
g55
sg56
F-0.7331952968520195
sg57
F1.0
sg15
I1
sg58
g59
sbsI2
g0
(g50
g2
Ntp63
Rp64
(dp65
g54
g55
sg56
F-10.733205213909297
sg57
F1.0
sg15
I2
sg58
g59
sbsI3
g0
(g50
g2
Ntp66
Rp67
(dp68
g54
g55
sg56
F-2.029832298291363
sg57
F1.0
sg15
I3
sg58
g59
sbsI70317
g0
(g50
g2
Ntp69
Rp70
(dp71
g54
g55
sg56
F-0.5825248406050776
sg57
F1.0
sg15
I70317
sg58
g59
sbsI68083
g0
(g50
g2
Ntp72
Rp73
(dp74
g54
g55
sg56
F-0.5335126735852674
sg57
F1.0
sg15
I68083
sg58
g59
sbsI69622
g0
(g50
g2
Ntp75
Rp76
(dp77
g54
g55
sg56
F-2.7992072399145544
sg57
F1.0
sg15
I69622
sg58
g59
sbssg15
I347673
sS'fitness'
p78
F2.0510204081632653
sb.