ccopy_reg
_reconstructor
p0
(cneat.genome
DefaultGenome
p1
c__builtin__
object
p2
Ntp3
Rp4
(dp5
S'connections'
p6
(dp7
(I70157
I68034
tp8
g0
(cneat.genes
DefaultConnectionGene
p9
g2
Ntp10
Rp11
(dp12
S'enabled'
p13
I01
sS'weight'
p14
F-0.9924231286462494
sS'key'
p15
g8
sbs(I66744
I69617
tp16
g0
(g9
g2
Ntp17
Rp18
(dp19
g13
I01
sg14
F2.520498354075613
sg15
g16
sbs(I69032
I69617
tp20
g0
(g9
g2
Ntp21
Rp22
(dp23
g13
I01
sg14
F-1.1593418153459745
sg15
g20
sbs(I66744
I67592
tp24
g0
(g9
g2
Ntp25
Rp26
(dp27
g13
I01
sg14
F-1.6729471066652355
sg15
g24
sbs(I2
I65983
tp28
g0
(g9
g2
Ntp29
Rp30
(dp31
g13
I01
sg14
F1.012878560952745
sg15
g28
sbs(I70157
I67737
tp32
g0
(g9
g2
Ntp33
Rp34
(dp35
g13
I01
sg14
F4.005991725940559
sg15
g32
sbs(I-7
I67737
tp36
g0
(g9
g2
Ntp37
Rp38
(dp39
g13
I00
sg14
F-0.37914554575174586
sg15
g36
sbs(I66328
I66223
tp40
g0
(g9
g2
Ntp41
Rp42
(dp43
g13
I01
sg14
F1.2512626788984933
sg15
g40
sbs(I64646
I3
tp44
g0
(g9
g2
Ntp45
Rp46
(dp47
g13
I01
sg14
F23.981150156704143
sg15
g44
sbs(I-6
I69032
tp48
g0
(g9
g2
Ntp49
Rp50
(dp51
g13
I01
sg14
F3.5150894036577007
sg15
g48
sbs(I-9
I1
tp52
g0
(g9
g2
Ntp53
Rp54
(dp55
g13
I01
sg14
F-12.420985138741543
sg15
g52
sbs(I66328
I1
tp56
g0
(g9
g2
Ntp57
Rp58
(dp59
g13
I00
sg14
F0.3430035938426158
sg15
g56
sbs(I-6
I70157
tp60
g0
(g9
g2
Ntp61
Rp62
(dp63
g13
I01
sg14
F-1.8565060182486086
sg15
g60
sbs(I1
I65983
tp64
g0
(g9
g2
Ntp65
Rp66
(dp67
g13
I01
sg14
F-0.004239232132644877
sg15
g64
sbs(I-11
I3
tp68
g0
(g9
g2
Ntp69
Rp70
(dp71
g13
I01
sg14
F-12.223444286236731
sg15
g68
sbs(I67263
I68034
tp72
g0
(g9
g2
Ntp73
Rp74
(dp75
g13
I00
sg14
F-2.138022649844957
sg15
g72
sbs(I-11
I66328
tp76
g0
(g9
g2
Ntp77
Rp78
(dp79
g13
I01
sg14
F-1.6381072487281263
sg15
g76
sbs(I-8
I67592
tp80
g0
(g9
g2
Ntp81
Rp82
(dp83
g13
I01
sg14
F-1.2232716445512803
sg15
g80
sbs(I69032
I2
tp84
g0
(g9
g2
Ntp85
Rp86
(dp87
g13
I01
sg14
F1.6308467501338466
sg15
g84
sbs(I69993
I67592
tp88
g0
(g9
g2
Ntp89
Rp90
(dp91
g13
I00
sg14
F0.5429737825876512
sg15
g88
sbs(I-6
I2
tp92
g0
(g9
g2
Ntp93
Rp94
(dp95
g13
I00
sg14
F0.4585359394788453
sg15
g92
sbs(I-3
I66744
tp96
g0
(g9
g2
Ntp97
Rp98
(dp99
g13
I01
sg14
F-5.6282223828351885
sg15
g96
sbs(I-1
I64646
tp100
g0
(g9
g2
Ntp101
Rp102
(dp103
g13
I01
sg14
F0.6638242515089026
sg15
g100
sbs(I-6
I67737
tp104
g0
(g9
g2
Ntp105
Rp106
(dp107
g13
I01
sg14
F-0.2408858984365301
sg15
g104
sbssS'nodes'
p108
(dp109
I0
g0
(cneat.genes
DefaultNodeGene
p110
g2
Ntp111
Rp112
(dp113
S'activation'
p114
S'sigmoid'
p115
sS'bias'
p116
F0.8470337625252197
sS'response'
p117
F1.0
sg15
I0
sS'aggregation'
p118
S'sum'
p119
sbsI1
g0
(g110
g2
Ntp120
Rp121
(dp122
g114
g115
sg116
F18.38460232101628
sg117
F1.0
sg15
I1
sg118
g119
sbsI2
g0
(g110
g2
Ntp123
Rp124
(dp125
g114
g115
sg116
F1.490406991099773
sg117
F1.0
sg15
I2
sg118
g119
sbsI3
g0
(g110
g2
Ntp126
Rp127
(dp128
g114
g115
sg116
F0.703444321418763
sg117
F1.0
sg15
I3
sg118
g119
sbsI64646
g0
(g110
g2
Ntp129
Rp130
(dp131
g114
g115
sg116
F0.8816328864543445
sg117
F1.0
sg15
I64646
sg118
g119
sbsI67592
g0
(g110
g2
Ntp132
Rp133
(dp134
g114
g115
sg116
F-0.447247184014883
sg117
F1.0
sg15
I67592
sg118
g119
sbsI69993
g0
(g110
g2
Ntp135
Rp136
(dp137
g114
g115
sg116
F-1.7546910074739932
sg117
F1.0
sg15
I69993
sg118
g119
sbsI68034
g0
(g110
g2
Ntp138
Rp139
(dp140
g114
g115
sg116
F1.2911243473264946
sg117
F1.0
sg15
I68034
sg118
g119
sbsI66223
g0
(g110
g2
Ntp141
Rp142
(dp143
g114
g115
sg116
F2.851318714432085
sg117
F1.0
sg15
I66223
sg118
g119
sbsI69617
g0
(g110
g2
Ntp144
Rp145
(dp146
g114
g115
sg116
F-0.99295802607994
sg117
F1.0
sg15
I69617
sg118
g119
sbsI69032
g0
(g110
g2
Ntp147
Rp148
(dp149
g114
g115
sg116
F1.0562082299249609
sg117
F1.0
sg15
I69032
sg118
g119
sbsI65983
g0
(g110
g2
Ntp150
Rp151
(dp152
g114
g115
sg116
F2.1781074613272766
sg117
F1.0
sg15
I65983
sg118
g119
sbsI66328
g0
(g110
g2
Ntp153
Rp154
(dp155
g114
g115
sg116
F0.7337700858771505
sg117
F1.0
sg15
I66328
sg118
g119
sbsI67737
g0
(g110
g2
Ntp156
Rp157
(dp158
g114
g115
sg116
F0.4598805777616557
sg117
F1.0
sg15
I67737
sg118
g119
sbsI66744
g0
(g110
g2
Ntp159
Rp160
(dp161
g114
g115
sg116
F-1.698712320466862
sg117
F1.0
sg15
I66744
sg118
g119
sbsI70157
g0
(g110
g2
Ntp162
Rp163
(dp164
g114
g115
sg116
F-4.462614383301836
sg117
F1.0
sg15
I70157
sg118
g119
sbsI67263
g0
(g110
g2
Ntp165
Rp166
(dp167
g114
g115
sg116
F-2.1427579559736643
sg117
F1.0
sg15
I67263
sg118
g119
sbssg15
I349565
sS'fitness'
p168
F2.045918367346939
sb.