ccopy_reg
_reconstructor
p0
(cneat.genome
DefaultGenome
p1
c__builtin__
object
p2
Ntp3
Rp4
(dp5
S'connections'
p6
(dp7
(I-2
I69633
tp8
g0
(cneat.genes
DefaultConnectionGene
p9
g2
Ntp10
Rp11
(dp12
S'enabled'
p13
I01
sS'weight'
p14
F-0.5208640053347444
sS'key'
p15
g8
sbs(I71046
I71194
tp16
g0
(g9
g2
Ntp17
Rp18
(dp19
g13
I01
sg14
F0.13493275716547853
sg15
g16
sbs(I69633
I66572
tp20
g0
(g9
g2
Ntp21
Rp22
(dp23
g13
I01
sg14
F0.19079732316630638
sg15
g20
sbs(I71194
I0
tp24
g0
(g9
g2
Ntp25
Rp26
(dp27
g13
I01
sg14
F1.0608656435385608
sg15
g24
sbs(I-10
I71046
tp28
g0
(g9
g2
Ntp29
Rp30
(dp31
g13
I00
sg14
F0.8721439864016451
sg15
g28
sbs(I68975
I0
tp32
g0
(g9
g2
Ntp33
Rp34
(dp35
g13
I01
sg14
F-0.8654957082836348
sg15
g32
sbs(I66572
I71046
tp36
g0
(g9
g2
Ntp37
Rp38
(dp39
g13
I01
sg14
F-0.2060821849269272
sg15
g36
sbs(I-9
I2
tp40
g0
(g9
g2
Ntp41
Rp42
(dp43
g13
I01
sg14
F11.019886382741078
sg15
g40
sbs(I-10
I67534
tp44
g0
(g9
g2
Ntp45
Rp46
(dp47
g13
I00
sg14
F1.1825477979831058
sg15
g44
sbs(I-8
I67534
tp48
g0
(g9
g2
Ntp49
Rp50
(dp51
g13
I00
sg14
F1.0991797409676598
sg15
g48
sbs(I3
I67534
tp52
g0
(g9
g2
Ntp53
Rp54
(dp55
g13
I00
sg14
F1.3136935204813416
sg15
g52
sbs(I71297
I71046
tp56
g0
(g9
g2
Ntp57
Rp58
(dp59
g13
I01
sg14
F1.640070388391955
sg15
g56
sbs(I2
I66572
tp60
g0
(g9
g2
Ntp61
Rp62
(dp63
g13
I00
sg14
F2.3527666192992407
sg15
g60
sbs(I-13
I1
tp64
g0
(g9
g2
Ntp65
Rp66
(dp67
g13
I01
sg14
F-0.41666186061308
sg15
g64
sbs(I-13
I2
tp68
g0
(g9
g2
Ntp69
Rp70
(dp71
g13
I01
sg14
F-23.913796080447433
sg15
g68
sbs(I-10
I71297
tp72
g0
(g9
g2
Ntp73
Rp74
(dp75
g13
I01
sg14
F1.2835656121779284
sg15
g72
sbs(I-7
I3
tp76
g0
(g9
g2
Ntp77
Rp78
(dp79
g13
I01
sg14
F-15.948222361674508
sg15
g76
sbs(I68975
I71194
tp80
g0
(g9
g2
Ntp81
Rp82
(dp83
g13
I01
sg14
F1.9075984713862155
sg15
g80
sbs(I71046
I67534
tp84
g0
(g9
g2
Ntp85
Rp86
(dp87
g13
I01
sg14
F4.282993389463519
sg15
g84
sbssS'nodes'
p88
(dp89
I0
g0
(cneat.genes
DefaultNodeGene
p90
g2
Ntp91
Rp92
(dp93
S'activation'
p94
S'sigmoid'
p95
sS'bias'
p96
F-1.1043424525437073
sS'response'
p97
F1.0
sg15
I0
sS'aggregation'
p98
S'sum'
p99
sbsI1
g0
(g90
g2
Ntp100
Rp101
(dp102
g94
g95
sg96
F-9.612472958518165
sg97
F1.0
sg15
I1
sg98
g99
sbsI2
g0
(g90
g2
Ntp103
Rp104
(dp105
g94
g95
sg96
F0.4768312671429259
sg97
F1.0
sg15
I2
sg98
g99
sbsI3
g0
(g90
g2
Ntp106
Rp107
(dp108
g94
g95
sg96
F1.421762809616805
sg97
F1.0
sg15
I3
sg98
g99
sbsI71046
g0
(g90
g2
Ntp109
Rp110
(dp111
g94
g95
sg96
F1.3303426166188153
sg97
F1.0
sg15
I71046
sg98
g99
sbsI69633
g0
(g90
g2
Ntp112
Rp113
(dp114
g94
g95
sg96
F-0.1396076896561967
sg97
F1.0
sg15
I69633
sg98
g99
sbsI66572
g0
(g90
g2
Ntp115
Rp116
(dp117
g94
g95
sg96
F0.5026697774339298
sg97
F1.0
sg15
I66572
sg98
g99
sbsI67534
g0
(g90
g2
Ntp118
Rp119
(dp120
g94
g95
sg96
F-0.5487577871003662
sg97
F1.0
sg15
I67534
sg98
g99
sbsI68975
g0
(g90
g2
Ntp121
Rp122
(dp123
g94
g95
sg96
F1.5197450439987892
sg97
F1.0
sg15
I68975
sg98
g99
sbsI62659
g0
(g90
g2
Ntp124
Rp125
(dp126
g94
g95
sg96
F-2.7129199307719505
sg97
F1.0
sg15
I62659
sg98
g99
sbsI71297
g0
(g90
g2
Ntp127
Rp128
(dp129
g94
g95
sg96
F1.669200338304225
sg97
F1.0
sg15
I71297
sg98
g99
sbsI71194
g0
(g90
g2
Ntp130
Rp131
(dp132
g94
g95
sg96
F0.7406938092268294
sg97
F1.0
sg15
I71194
sg98
g99
sbssg15
I354249
sS'fitness'
p133
F3.0357142857142856
sb.