ccopy_reg
_reconstructor
p0
(cneat.genome
DefaultGenome
p1
c__builtin__
object
p2
Ntp3
Rp4
(dp5
S'connections'
p6
(dp7
(I-5
I66395
tp8
g0
(cneat.genes
DefaultConnectionGene
p9
g2
Ntp10
Rp11
(dp12
S'enabled'
p13
I00
sS'weight'
p14
F2.9811152882215515
sS'key'
p15
g8
sbs(I-13
I66395
tp16
g0
(g9
g2
Ntp17
Rp18
(dp19
g13
I01
sg14
F0.7135446048046987
sg15
g16
sbs(I1
I69312
tp20
g0
(g9
g2
Ntp21
Rp22
(dp23
g13
I01
sg14
F2.1621826560013
sg15
g20
sbs(I-11
I69045
tp24
g0
(g9
g2
Ntp25
Rp26
(dp27
g13
I01
sg14
F-0.3625553763910296
sg15
g24
sbs(I69756
I65424
tp28
g0
(g9
g2
Ntp29
Rp30
(dp31
g13
I01
sg14
F1.1532772701604874
sg15
g28
sbs(I-6
I0
tp32
g0
(g9
g2
Ntp33
Rp34
(dp35
g13
I01
sg14
F-10.805460246484229
sg15
g32
sbs(I1
I65424
tp36
g0
(g9
g2
Ntp37
Rp38
(dp39
g13
I00
sg14
F-1.7716290620229849
sg15
g36
sbs(I-5
I67303
tp40
g0
(g9
g2
Ntp41
Rp42
(dp43
g13
I01
sg14
F-3.3204771702765323
sg15
g40
sbs(I-10
I67303
tp44
g0
(g9
g2
Ntp45
Rp46
(dp47
g13
I00
sg14
F-1.0404542832345578
sg15
g44
sbs(I-8
I2
tp48
g0
(g9
g2
Ntp49
Rp50
(dp51
g13
I01
sg14
F0.7467211387115545
sg15
g48
sbs(I69045
I65424
tp52
g0
(g9
g2
Ntp53
Rp54
(dp55
g13
I01
sg14
F-2.699606035495058
sg15
g52
sbs(I-7
I1
tp56
g0
(g9
g2
Ntp57
Rp58
(dp59
g13
I01
sg14
F10.985197452167439
sg15
g56
sbs(I-5
I0
tp60
g0
(g9
g2
Ntp61
Rp62
(dp63
g13
I00
sg14
F-0.1049917795291388
sg15
g60
sbs(I-8
I65424
tp64
g0
(g9
g2
Ntp65
Rp66
(dp67
g13
I00
sg14
F-0.8295509578238728
sg15
g64
sbs(I-11
I3
tp68
g0
(g9
g2
Ntp69
Rp70
(dp71
g13
I01
sg14
F5.313749700060956
sg15
g68
sbs(I1
I69756
tp72
g0
(g9
g2
Ntp73
Rp74
(dp75
g13
I01
sg14
F0.534502673943855
sg15
g72
sbs(I-2
I3
tp76
g0
(g9
g2
Ntp77
Rp78
(dp79
g13
I01
sg14
F-2.114076419320674
sg15
g76
sbs(I-11
I2
tp80
g0
(g9
g2
Ntp81
Rp82
(dp83
g13
I01
sg14
F-4.0434962201156175
sg15
g80
sbs(I-3
I0
tp84
g0
(g9
g2
Ntp85
Rp86
(dp87
g13
I01
sg14
F-1.9878604848619084
sg15
g84
sbs(I-9
I3
tp88
g0
(g9
g2
Ntp89
Rp90
(dp91
g13
I01
sg14
F-6.690009937032151
sg15
g88
sbs(I-11
I65424
tp92
g0
(g9
g2
Ntp93
Rp94
(dp95
g13
I01
sg14
F0.19339718795507604
sg15
g92
sbssS'nodes'
p96
(dp97
I0
g0
(cneat.genes
DefaultNodeGene
p98
g2
Ntp99
Rp100
(dp101
S'activation'
p102
S'sigmoid'
p103
sS'bias'
p104
F2.663030315970326
sS'response'
p105
F1.0
sg15
I0
sS'aggregation'
p106
S'sum'
p107
sbsI1
g0
(g98
g2
Ntp108
Rp109
(dp110
g102
g103
sg104
F-6.269079812422629
sg105
F1.0
sg15
I1
sg106
g107
sbsI2
g0
(g98
g2
Ntp111
Rp112
(dp113
g102
g103
sg104
F-0.6725173115608066
sg105
F1.0
sg15
I2
sg106
g107
sbsI3
g0
(g98
g2
Ntp114
Rp115
(dp116
g102
g103
sg104
F0.6671479812822098
sg105
F1.0
sg15
I3
sg106
g107
sbsI67303
g0
(g98
g2
Ntp117
Rp118
(dp119
g102
g103
sg104
F0.5255070442664734
sg105
F1.0
sg15
I67303
sg106
g107
sbsI65424
g0
(g98
g2
Ntp120
Rp121
(dp122
g102
g103
sg104
F-0.7903830573300397
sg105
F1.0
sg15
I65424
sg106
g107
sbsI69312
g0
(g98
g2
Ntp123
Rp124
(dp125
g102
g103
sg104
F-0.6304449548121737
sg105
F1.0
sg15
I69312
sg106
g107
sbsI69045
g0
(g98
g2
Ntp126
Rp127
(dp128
g102
g103
sg104
F0.4395878540187049
sg105
F1.0
sg15
I69045
sg106
g107
sbsI66395
g0
(g98
g2
Ntp129
Rp130
(dp131
g102
g103
sg104
F-3.6788706503792423
sg105
F1.0
sg15
I66395
sg106
g107
sbsI69756
g0
(g98
g2
Ntp132
Rp133
(dp134
g102
g103
sg104
F-1.1965307178378841
sg105
F1.0
sg15
I69756
sg106
g107
sbssg15
I347649
sS'fitness'
p135
F3.0255102040816326
sb.