ccopy_reg
_reconstructor
p0
(cneat.genome
DefaultGenome
p1
c__builtin__
object
p2
Ntp3
Rp4
(dp5
S'connections'
p6
(dp7
(I-5
I0
tp8
g0
(cneat.genes
DefaultConnectionGene
p9
g2
Ntp10
Rp11
(dp12
S'enabled'
p13
I00
sS'weight'
p14
F0.8051496921391312
sS'key'
p15
g8
sbs(I-7
I91261
tp16
g0
(g9
g2
Ntp17
Rp18
(dp19
g13
I00
sg14
F-0.5020165338645904
sg15
g16
sbs(I-1
I1
tp20
g0
(g9
g2
Ntp21
Rp22
(dp23
g13
I00
sg14
F-0.6436641322446359
sg15
g20
sbs(I-2
I2
tp24
g0
(g9
g2
Ntp25
Rp26
(dp27
g13
I01
sg14
F3.0583460048447253
sg15
g24
sbs(I-8
I91261
tp28
g0
(g9
g2
Ntp29
Rp30
(dp31
g13
I01
sg14
F0.694633892681819
sg15
g28
sbs(I-6
I1
tp32
g0
(g9
g2
Ntp33
Rp34
(dp35
g13
I01
sg14
F-0.1286029744743295
sg15
g32
sbs(I-2
I3
tp36
g0
(g9
g2
Ntp37
Rp38
(dp39
g13
I01
sg14
F6.8476489994493726
sg15
g36
sbs(I-12
I2
tp40
g0
(g9
g2
Ntp41
Rp42
(dp43
g13
I01
sg14
F-3.8017501287292528
sg15
g40
sbs(I-1
I2
tp44
g0
(g9
g2
Ntp45
Rp46
(dp47
g13
I00
sg14
F1.7044546220826202
sg15
g44
sbs(I-6
I0
tp48
g0
(g9
g2
Ntp49
Rp50
(dp51
g13
I00
sg14
F0.8690388834925906
sg15
g48
sbs(I-7
I1
tp52
g0
(g9
g2
Ntp53
Rp54
(dp55
g13
I01
sg14
F28.324390287511427
sg15
g52
sbs(I-5
I3
tp56
g0
(g9
g2
Ntp57
Rp58
(dp59
g13
I01
sg14
F9.36477496425326
sg15
g56
sbs(I-9
I1
tp60
g0
(g9
g2
Ntp61
Rp62
(dp63
g13
I01
sg14
F-20.273646059719606
sg15
g60
sbs(I-7
I3
tp64
g0
(g9
g2
Ntp65
Rp66
(dp67
g13
I00
sg14
F-2.331192299400186
sg15
g64
sbs(I91261
I3
tp68
g0
(g9
g2
Ntp69
Rp70
(dp71
g13
I00
sg14
F-1.6793945097182383
sg15
g68
sbs(I-10
I0
tp72
g0
(g9
g2
Ntp73
Rp74
(dp75
g13
I01
sg14
F-8.009596673800441
sg15
g72
sbssS'nodes'
p76
(dp77
I0
g0
(cneat.genes
DefaultNodeGene
p78
g2
Ntp79
Rp80
(dp81
S'activation'
p82
S'sigmoid'
p83
sS'bias'
p84
F-2.9692290394575327
sS'response'
p85
F1.0
sg15
I0
sS'aggregation'
p86
S'sum'
p87
sbsI1
g0
(g78
g2
Ntp88
Rp89
(dp90
g82
g83
sg84
F0.6680325719453356
sg85
F1.0
sg15
I1
sg86
g87
sbsI2
g0
(g78
g2
Ntp91
Rp92
(dp93
g82
g83
sg84
F-1.1393958741198502
sg85
F1.0
sg15
I2
sg86
g87
sbsI3
g0
(g78
g2
Ntp94
Rp95
(dp96
g82
g83
sg84
F-16.090953099999243
sg85
F1.0
sg15
I3
sg86
g87
sbsI91261
g0
(g78
g2
Ntp97
Rp98
(dp99
g82
g83
sg84
F0.7089737233759638
sg85
F1.0
sg15
I91261
sg86
g87
sbssg15
I454953
sS'fitness'
p100
cnumpy.core.multiarray
scalar
p101
(cnumpy
dtype
p102
(S'f8'
p103
I0
I1
tp104
Rp105
(I3
S'<'
p106
NNNI-1
I-1
I0
tp107
bS'\xfb\xd0X\x1f\x1a+\x10@'
p108
tp109
Rp110
sb.