ccopy_reg
_reconstructor
p0
(cneat.genome
DefaultGenome
p1
c__builtin__
object
p2
Ntp3
Rp4
(dp5
S'connections'
p6
(dp7
(I-11
I90894
tp8
g0
(cneat.genes
DefaultConnectionGene
p9
g2
Ntp10
Rp11
(dp12
S'enabled'
p13
I01
sS'weight'
p14
F1.3247447559633674
sS'key'
p15
g8
sbs(I93257
I90894
tp16
g0
(g9
g2
Ntp17
Rp18
(dp19
g13
I01
sg14
F2.347720170061916
sg15
g16
sbs(I0
I90894
tp20
g0
(g9
g2
Ntp21
Rp22
(dp23
g13
I00
sg14
F-1.7647633604968505
sg15
g20
sbs(I0
I94003
tp24
g0
(g9
g2
Ntp25
Rp26
(dp27
g13
I01
sg14
F1.0
sg15
g24
sbs(I93788
I83881
tp28
g0
(g9
g2
Ntp29
Rp30
(dp31
g13
I01
sg14
F-1.84334752794103
sg15
g28
sbs(I-10
I93257
tp32
g0
(g9
g2
Ntp33
Rp34
(dp35
g13
I01
sg14
F2.579992468881531
sg15
g32
sbs(I-9
I2
tp36
g0
(g9
g2
Ntp37
Rp38
(dp39
g13
I01
sg14
F6.689720931413941
sg15
g36
sbs(I-10
I90894
tp40
g0
(g9
g2
Ntp41
Rp42
(dp43
g13
I01
sg14
F-0.16869497435964642
sg15
g40
sbs(I-13
I2
tp44
g0
(g9
g2
Ntp45
Rp46
(dp47
g13
I01
sg14
F-21.177660270605227
sg15
g44
sbs(I-12
I83881
tp48
g0
(g9
g2
Ntp49
Rp50
(dp51
g13
I00
sg14
F0.6106687723343949
sg15
g48
sbs(I-6
I93257
tp52
g0
(g9
g2
Ntp53
Rp54
(dp55
g13
I01
sg14
F0.8556376624084098
sg15
g52
sbs(I-10
I90652
tp56
g0
(g9
g2
Ntp57
Rp58
(dp59
g13
I01
sg14
F-4.326030721105899
sg15
g56
sbs(I94003
I90894
tp60
g0
(g9
g2
Ntp61
Rp62
(dp63
g13
I01
sg14
F-0.203032172804571
sg15
g60
sbs(I-7
I3
tp64
g0
(g9
g2
Ntp65
Rp66
(dp67
g13
I01
sg14
F-15.47381343281088
sg15
g64
sbs(I90652
I1
tp68
g0
(g9
g2
Ntp69
Rp70
(dp71
g13
I01
sg14
F-0.6585183556584476
sg15
g68
sbssS'nodes'
p72
(dp73
I0
g0
(cneat.genes
DefaultNodeGene
p74
g2
Ntp75
Rp76
(dp77
S'activation'
p78
S'sigmoid'
p79
sS'bias'
p80
F-2.365993894297099
sS'response'
p81
F1.0
sg15
I0
sS'aggregation'
p82
S'sum'
p83
sbsI1
g0
(g74
g2
Ntp84
Rp85
(dp86
g78
g79
sg80
F-15.763972368564115
sg81
F1.0
sg15
I1
sg82
g83
sbsI2
g0
(g74
g2
Ntp87
Rp88
(dp89
g78
g79
sg80
F0.345293457923942
sg81
F1.0
sg15
I2
sg82
g83
sbsI3
g0
(g74
g2
Ntp90
Rp91
(dp92
g78
g79
sg80
F-1.0827893689670223
sg81
F1.0
sg15
I3
sg82
g83
sbsI83881
g0
(g74
g2
Ntp93
Rp94
(dp95
g78
g79
sg80
F1.0488700592305622
sg81
F1.0
sg15
I83881
sg82
g83
sbsI90894
g0
(g74
g2
Ntp96
Rp97
(dp98
g78
g79
sg80
F0.26610164676468984
sg81
F1.0
sg15
I90894
sg82
g83
sbsI94003
g0
(g74
g2
Ntp99
Rp100
(dp101
g78
g79
sg80
F-1.2648420689491222
sg81
F1.0
sg15
I94003
sg82
g83
sbsI93257
g0
(g74
g2
Ntp102
Rp103
(dp104
g78
g79
sg80
F0.6877875334008454
sg81
F1.0
sg15
I93257
sg82
g83
sbsI93788
g0
(g74
g2
Ntp105
Rp106
(dp107
g78
g79
sg80
F1.2062108247372592
sg81
F1.0
sg15
I93788
sg82
g83
sbsI90652
g0
(g74
g2
Ntp108
Rp109
(dp110
g78
g79
sg80
F0.12083770198148171
sg81
F1.0
sg15
I90652
sg82
g83
sbssg15
I467424
sS'fitness'
p111
cnumpy.core.multiarray
scalar
p112
(cnumpy
dtype
p113
(S'f8'
p114
I0
I1
tp115
Rp116
(I3
S'<'
p117
NNNI-1
I-1
I0
tp118
bS't\n^N\xc1\xcb\xf8?'
p119
tp120
Rp121
sb.