ccopy_reg
_reconstructor
p0
(cneat.genome
DefaultGenome
p1
c__builtin__
object
p2
Ntp3
Rp4
(dp5
S'connections'
p6
(dp7
(I-11
I0
tp8
g0
(cneat.genes
DefaultConnectionGene
p9
g2
Ntp10
Rp11
(dp12
S'enabled'
p13
I01
sS'weight'
p14
F-4.12568452568254
sS'key'
p15
g8
sbs(I-1
I3
tp16
g0
(g9
g2
Ntp17
Rp18
(dp19
g13
I00
sg14
F0.5604787165003206
sg15
g16
sbs(I95824
I95870
tp20
g0
(g9
g2
Ntp21
Rp22
(dp23
g13
I01
sg14
F2.195363217250251
sg15
g20
sbs(I95824
I3
tp24
g0
(g9
g2
Ntp25
Rp26
(dp27
g13
I00
sg14
F-0.2594607385568881
sg15
g24
sbs(I-4
I0
tp28
g0
(g9
g2
Ntp29
Rp30
(dp31
g13
I01
sg14
F0.02070265302062009
sg15
g28
sbs(I-11
I3
tp32
g0
(g9
g2
Ntp33
Rp34
(dp35
g13
I01
sg14
F-9.136167402459147
sg15
g32
sbs(I-8
I91064
tp36
g0
(g9
g2
Ntp37
Rp38
(dp39
g13
I01
sg14
F-0.5741513174550993
sg15
g36
sbs(I-8
I2
tp40
g0
(g9
g2
Ntp41
Rp42
(dp43
g13
I01
sg14
F-2.756378984634973
sg15
g40
sbs(I-4
I95739
tp44
g0
(g9
g2
Ntp45
Rp46
(dp47
g13
I01
sg14
F0.788240114685689
sg15
g44
sbs(I-9
I1
tp48
g0
(g9
g2
Ntp49
Rp50
(dp51
g13
I01
sg14
F-7.542737399310441
sg15
g48
sbs(I-13
I0
tp52
g0
(g9
g2
Ntp53
Rp54
(dp55
g13
I01
sg14
F4.143126997659059
sg15
g52
sbs(I-10
I0
tp56
g0
(g9
g2
Ntp57
Rp58
(dp59
g13
I01
sg14
F-20.199801925153846
sg15
g56
sbs(I-1
I95824
tp60
g0
(g9
g2
Ntp61
Rp62
(dp63
g13
I01
sg14
F1.0
sg15
g60
sbssS'nodes'
p64
(dp65
I0
g0
(cneat.genes
DefaultNodeGene
p66
g2
Ntp67
Rp68
(dp69
S'activation'
p70
S'sigmoid'
p71
sS'bias'
p72
F-2.9286993194572175
sS'response'
p73
F1.0
sg15
I0
sS'aggregation'
p74
S'sum'
p75
sbsI1
g0
(g66
g2
Ntp76
Rp77
(dp78
g70
g71
sg72
F-1.0631259362326333
sg73
F1.0
sg15
I1
sg74
g75
sbsI2
g0
(g66
g2
Ntp79
Rp80
(dp81
g70
g71
sg72
F-11.418940239846954
sg73
F1.0
sg15
I2
sg74
g75
sbsI3
g0
(g66
g2
Ntp82
Rp83
(dp84
g70
g71
sg72
F4.258856230244634
sg73
F1.0
sg15
I3
sg74
g75
sbsI95824
g0
(g66
g2
Ntp85
Rp86
(dp87
g70
g71
sg72
F-1.056305206551816
sg73
F1.0
sg15
I95824
sg74
g75
sbsI91064
g0
(g66
g2
Ntp88
Rp89
(dp90
g70
g71
sg72
F3.231925250829703
sg73
F1.0
sg15
I91064
sg74
g75
sbsI95739
g0
(g66
g2
Ntp91
Rp92
(dp93
g70
g71
sg72
F0.23917249087236728
sg73
F1.0
sg15
I95739
sg74
g75
sbsI95870
g0
(g66
g2
Ntp94
Rp95
(dp96
g70
g71
sg72
F0.63342808491012
sg73
F1.0
sg15
I95870
sg74
g75
sbssg15
I476326
sS'fitness'
p97
cnumpy.core.multiarray
scalar
p98
(cnumpy
dtype
p99
(S'f8'
p100
I0
I1
tp101
Rp102
(I3
S'<'
p103
NNNI-1
I-1
I0
tp104
bS'\x8d\xf5\xa1\xb1>\xc4:@'
p105
tp106
Rp107
sb.