ccopy_reg
_reconstructor
p0
(cneat.genome
DefaultGenome
p1
c__builtin__
object
p2
Ntp3
Rp4
(dp5
S'connections'
p6
(dp7
(I-10
I3
tp8
g0
(cneat.genes
DefaultConnectionGene
p9
g2
Ntp10
Rp11
(dp12
S'enabled'
p13
I01
sS'weight'
p14
F-0.2080773747387922
sS'key'
p15
g8
sbs(I-4
I90578
tp16
g0
(g9
g2
Ntp17
Rp18
(dp19
g13
I01
sg14
F-0.5281923954077589
sg15
g16
sbs(I-5
I90542
tp20
g0
(g9
g2
Ntp21
Rp22
(dp23
g13
I01
sg14
F0.9661588829021426
sg15
g20
sbs(I90578
I2
tp24
g0
(g9
g2
Ntp25
Rp26
(dp27
g13
I01
sg14
F-0.2951452973150666
sg15
g24
sbs(I-13
I92633
tp28
g0
(g9
g2
Ntp29
Rp30
(dp31
g13
I01
sg14
F0.9826883898523753
sg15
g28
sbs(I3
I89467
tp32
g0
(g9
g2
Ntp33
Rp34
(dp35
g13
I01
sg14
F0.29903630463882797
sg15
g32
sbs(I1
I90578
tp36
g0
(g9
g2
Ntp37
Rp38
(dp39
g13
I01
sg14
F0.7828854714720159
sg15
g36
sbs(I-3
I92204
tp40
g0
(g9
g2
Ntp41
Rp42
(dp43
g13
I01
sg14
F1.5878166622168282
sg15
g40
sbs(I-3
I2
tp44
g0
(g9
g2
Ntp45
Rp46
(dp47
g13
I00
sg14
F0.05205125255870802
sg15
g44
sbs(I-4
I90542
tp48
g0
(g9
g2
Ntp49
Rp50
(dp51
g13
I01
sg14
F0.4104371001928834
sg15
g48
sbs(I-9
I1
tp52
g0
(g9
g2
Ntp53
Rp54
(dp55
g13
I01
sg14
F-3.4209229278192965
sg15
g52
sbs(I-8
I0
tp56
g0
(g9
g2
Ntp57
Rp58
(dp59
g13
I01
sg14
F4.208185040630103
sg15
g56
sbs(I-5
I3
tp60
g0
(g9
g2
Ntp61
Rp62
(dp63
g13
I01
sg14
F29.86916865428337
sg15
g60
sbssS'nodes'
p64
(dp65
I0
g0
(cneat.genes
DefaultNodeGene
p66
g2
Ntp67
Rp68
(dp69
S'activation'
p70
S'sigmoid'
p71
sS'bias'
p72
F-1.5916937436233551
sS'response'
p73
F1.0
sg15
I0
sS'aggregation'
p74
S'sum'
p75
sbsI1
g0
(g66
g2
Ntp76
Rp77
(dp78
g70
g71
sg72
F6.015466791605819
sg73
F1.0
sg15
I1
sg74
g75
sbsI2
g0
(g66
g2
Ntp79
Rp80
(dp81
g70
g71
sg72
F-0.4109289654471694
sg73
F1.0
sg15
I2
sg74
g75
sbsI3
g0
(g66
g2
Ntp82
Rp83
(dp84
g70
g71
sg72
F-1.2327841655559215
sg73
F1.0
sg15
I3
sg74
g75
sbsI92204
g0
(g66
g2
Ntp85
Rp86
(dp87
g70
g71
sg72
F-0.35172609244007236
sg73
F1.0
sg15
I92204
sg74
g75
sbsI90542
g0
(g66
g2
Ntp88
Rp89
(dp90
g70
g71
sg72
F-0.4606100995600096
sg73
F1.0
sg15
I90542
sg74
g75
sbsI90578
g0
(g66
g2
Ntp91
Rp92
(dp93
g70
g71
sg72
F0.08798193926508424
sg73
F1.0
sg15
I90578
sg74
g75
sbsI92633
g0
(g66
g2
Ntp94
Rp95
(dp96
g70
g71
sg72
F0.7057664181791619
sg73
F1.0
sg15
I92633
sg74
g75
sbsI89467
g0
(g66
g2
Ntp97
Rp98
(dp99
g70
g71
sg72
F-1.1603007695039498
sg73
F1.0
sg15
I89467
sg74
g75
sbssg15
I458287
sS'fitness'
p100
cnumpy.core.multiarray
scalar
p101
(cnumpy
dtype
p102
(S'f8'
p103
I0
I1
tp104
Rp105
(I3
S'<'
p106
NNNI-1
I-1
I0
tp107
bS'\x82\x97S\xf0r\n\n@'
p108
tp109
Rp110
sb.