ccopy_reg
_reconstructor
p0
(cneat.genome
DefaultGenome
p1
c__builtin__
object
p2
Ntp3
Rp4
(dp5
S'connections'
p6
(dp7
(I93045
I91905
tp8
g0
(cneat.genes
DefaultConnectionGene
p9
g2
Ntp10
Rp11
(dp12
S'enabled'
p13
I00
sS'weight'
p14
F4.073291608598161
sS'key'
p15
g8
sbs(I-7
I93144
tp16
g0
(g9
g2
Ntp17
Rp18
(dp19
g13
I01
sg14
F-0.06069179456325147
sg15
g16
sbs(I93200
I92349
tp20
g0
(g9
g2
Ntp21
Rp22
(dp23
g13
I01
sg14
F-3.072345869827811
sg15
g20
sbs(I-9
I2
tp24
g0
(g9
g2
Ntp25
Rp26
(dp27
g13
I01
sg14
F8.494483519612768
sg15
g24
sbs(I91795
I93144
tp28
g0
(g9
g2
Ntp29
Rp30
(dp31
g13
I01
sg14
F-0.6385105733750684
sg15
g28
sbs(I0
I93929
tp32
g0
(g9
g2
Ntp33
Rp34
(dp35
g13
I01
sg14
F1.757813658745522
sg15
g32
sbs(I-1
I91795
tp36
g0
(g9
g2
Ntp37
Rp38
(dp39
g13
I01
sg14
F0.020671398717679697
sg15
g36
sbs(I-11
I93144
tp40
g0
(g9
g2
Ntp41
Rp42
(dp43
g13
I01
sg14
F-0.5341421495571148
sg15
g40
sbs(I91905
I93200
tp44
g0
(g9
g2
Ntp45
Rp46
(dp47
g13
I01
sg14
F1.0770533144463736
sg15
g44
sbs(I-4
I93045
tp48
g0
(g9
g2
Ntp49
Rp50
(dp51
g13
I01
sg14
F-1.495888954536392
sg15
g48
sbs(I93200
I93081
tp52
g0
(g9
g2
Ntp53
Rp54
(dp55
g13
I01
sg14
F1.6366722444294124
sg15
g52
sbs(I-2
I93081
tp56
g0
(g9
g2
Ntp57
Rp58
(dp59
g13
I01
sg14
F-0.49468977289309457
sg15
g56
sbs(I0
I88910
tp60
g0
(g9
g2
Ntp61
Rp62
(dp63
g13
I00
sg14
F-2.43021427051064
sg15
g60
sbs(I-8
I93200
tp64
g0
(g9
g2
Ntp65
Rp66
(dp67
g13
I00
sg14
F-0.6112204818312578
sg15
g64
sbs(I93969
I91905
tp68
g0
(g9
g2
Ntp69
Rp70
(dp71
g13
I01
sg14
F3.1981881216748738
sg15
g68
sbs(I-10
I88910
tp72
g0
(g9
g2
Ntp73
Rp74
(dp75
g13
I01
sg14
F0.13347456302128163
sg15
g72
sbs(I-10
I88499
tp76
g0
(g9
g2
Ntp77
Rp78
(dp79
g13
I01
sg14
F0.9393415319372077
sg15
g76
sbs(I93045
I93969
tp80
g0
(g9
g2
Ntp81
Rp82
(dp83
g13
I01
sg14
F1.0
sg15
g80
sbs(I91905
I0
tp84
g0
(g9
g2
Ntp85
Rp86
(dp87
g13
I01
sg14
F-1.2920602138539399
sg15
g84
sbs(I92215
I88499
tp88
g0
(g9
g2
Ntp89
Rp90
(dp91
g13
I01
sg14
F1.4016372495756464
sg15
g88
sbs(I-10
I93144
tp92
g0
(g9
g2
Ntp93
Rp94
(dp95
g13
I01
sg14
F2.7691268915914433
sg15
g92
sbs(I-7
I1
tp96
g0
(g9
g2
Ntp97
Rp98
(dp99
g13
I01
sg14
F12.608940977903574
sg15
g96
sbs(I0
I93833
tp100
g0
(g9
g2
Ntp101
Rp102
(dp103
g13
I01
sg14
F0.8100718149905932
sg15
g100
sbs(I91795
I91905
tp104
g0
(g9
g2
Ntp105
Rp106
(dp107
g13
I01
sg14
F0.5193194540270795
sg15
g104
sbssS'nodes'
p108
(dp109
I0
g0
(cneat.genes
DefaultNodeGene
p110
g2
Ntp111
Rp112
(dp113
S'activation'
p114
S'sigmoid'
p115
sS'bias'
p116
F-1.183288823743029
sS'response'
p117
F1.0
sg15
I0
sS'aggregation'
p118
S'sum'
p119
sbsI1
g0
(g110
g2
Ntp120
Rp121
(dp122
g114
g115
sg116
F-8.745425285903353
sg117
F1.0
sg15
I1
sg118
g119
sbsI2
g0
(g110
g2
Ntp123
Rp124
(dp125
g114
g115
sg116
F-13.637444158630903
sg117
F1.0
sg15
I2
sg118
g119
sbsI3
g0
(g110
g2
Ntp126
Rp127
(dp128
g114
g115
sg116
F-0.26696999339634275
sg117
F1.0
sg15
I3
sg118
g119
sbsI93200
g0
(g110
g2
Ntp129
Rp130
(dp131
g114
g115
sg116
F0.6533470036548691
sg117
F1.0
sg15
I93200
sg118
g119
sbsI91905
g0
(g110
g2
Ntp132
Rp133
(dp134
g114
g115
sg116
F-0.6904264348120107
sg117
F1.0
sg15
I91905
sg118
g119
sbsI93929
g0
(g110
g2
Ntp135
Rp136
(dp137
g114
g115
sg116
F2.780912938923982
sg117
F1.0
sg15
I93929
sg118
g119
sbsI92215
g0
(g110
g2
Ntp138
Rp139
(dp140
g114
g115
sg116
F0.056542637866486056
sg117
F1.0
sg15
I92215
sg118
g119
sbsI88910
g0
(g110
g2
Ntp141
Rp142
(dp143
g114
g115
sg116
F-1.311151936303136
sg117
F1.0
sg15
I88910
sg118
g119
sbsI92480
g0
(g110
g2
Ntp144
Rp145
(dp146
g114
g115
sg116
F0.18670832268731974
sg117
F1.0
sg15
I92480
sg118
g119
sbsI93969
g0
(g110
g2
Ntp147
Rp148
(dp149
g114
g115
sg116
F-1.830987903469384
sg117
F1.0
sg15
I93969
sg118
g119
sbsI88499
g0
(g110
g2
Ntp150
Rp151
(dp152
g114
g115
sg116
F-0.9041481999104686
sg117
F1.0
sg15
I88499
sg118
g119
sbsI91795
g0
(g110
g2
Ntp153
Rp154
(dp155
g114
g115
sg116
F-1.2932785859850615
sg117
F1.0
sg15
I91795
sg118
g119
sbsI93045
g0
(g110
g2
Ntp156
Rp157
(dp158
g114
g115
sg116
F0.9371628340362046
sg117
F1.0
sg15
I93045
sg118
g119
sbsI93833
g0
(g110
g2
Ntp159
Rp160
(dp161
g114
g115
sg116
F-0.8446152313893724
sg117
F1.0
sg15
I93833
sg118
g119
sbsI93144
g0
(g110
g2
Ntp162
Rp163
(dp164
g114
g115
sg116
F-0.08220690504743344
sg117
F1.0
sg15
I93144
sg118
g119
sbsI93081
g0
(g110
g2
Ntp165
Rp166
(dp167
g114
g115
sg116
F0.9271515542520992
sg117
F1.0
sg15
I93081
sg118
g119
sbsI92349
g0
(g110
g2
Ntp168
Rp169
(dp170
g114
g115
sg116
F-2.0763659799982217
sg117
F1.0
sg15
I92349
sg118
g119
sbsI90815
g0
(g110
g2
Ntp171
Rp172
(dp173
g114
g115
sg116
F1.3897715085116065
sg117
F1.0
sg15
I90815
sg118
g119
sbssg15
I465364
sS'fitness'
p174
cnumpy.core.multiarray
scalar
p175
(cnumpy
dtype
p176
(S'f8'
p177
I0
I1
tp178
Rp179
(I3
S'<'
p180
NNNI-1
I-1
I0
tp181
bS'\xd6\x87\xc6\xfa\xd0X\xfc?'
p182
tp183
Rp184
sb.