ccopy_reg
_reconstructor
p0
(cneat.genome
DefaultGenome
p1
c__builtin__
object
p2
Ntp3
Rp4
(dp5
S'connections'
p6
(dp7
(I-6
I93787
tp8
g0
(cneat.genes
DefaultConnectionGene
p9
g2
Ntp10
Rp11
(dp12
S'enabled'
p13
I01
sS'weight'
p14
F0.05445351045725855
sS'key'
p15
g8
sbs(I89067
I92677
tp16
g0
(g9
g2
Ntp17
Rp18
(dp19
g13
I00
sg14
F-1.114783005274943
sg15
g16
sbs(I-8
I93189
tp20
g0
(g9
g2
Ntp21
Rp22
(dp23
g13
I01
sg14
F2.6542924340203142
sg15
g20
sbs(I-4
I2
tp24
g0
(g9
g2
Ntp25
Rp26
(dp27
g13
I01
sg14
F15.630662622268321
sg15
g24
sbs(I-8
I89067
tp28
g0
(g9
g2
Ntp29
Rp30
(dp31
g13
I00
sg14
F0.0050624533332673805
sg15
g28
sbs(I0
I92924
tp32
g0
(g9
g2
Ntp33
Rp34
(dp35
g13
I01
sg14
F-4.074683186879852
sg15
g32
sbs(I92874
I92677
tp36
g0
(g9
g2
Ntp37
Rp38
(dp39
g13
I01
sg14
F0.1949855444799068
sg15
g36
sbs(I93189
I92874
tp40
g0
(g9
g2
Ntp41
Rp42
(dp43
g13
I01
sg14
F0.053802122482948245
sg15
g40
sbs(I0
I91981
tp44
g0
(g9
g2
Ntp45
Rp46
(dp47
g13
I01
sg14
F-0.1430814598957414
sg15
g44
sbs(I-7
I1
tp48
g0
(g9
g2
Ntp49
Rp50
(dp51
g13
I01
sg14
F6.678631763605025
sg15
g48
sbs(I0
I81942
tp52
g0
(g9
g2
Ntp53
Rp54
(dp55
g13
I00
sg14
F-1.0855036133642906
sg15
g52
sbs(I89067
I92874
tp56
g0
(g9
g2
Ntp57
Rp58
(dp59
g13
I01
sg14
F-1.1135025521697108
sg15
g56
sbs(I-6
I3
tp60
g0
(g9
g2
Ntp61
Rp62
(dp63
g13
I01
sg14
F-1.9583028652450023
sg15
g60
sbs(I-6
I89067
tp64
g0
(g9
g2
Ntp65
Rp66
(dp67
g13
I00
sg14
F-2.054629902662585
sg15
g64
sbs(I93684
I91981
tp68
g0
(g9
g2
Ntp69
Rp70
(dp71
g13
I01
sg14
F-2.3932514424466254
sg15
g68
sbs(I91463
I91981
tp72
g0
(g9
g2
Ntp73
Rp74
(dp75
g13
I01
sg14
F-1.9893081013420733
sg15
g72
sbs(I92924
I81942
tp76
g0
(g9
g2
Ntp77
Rp78
(dp79
g13
I01
sg14
F-0.1534470329756964
sg15
g76
sbs(I-12
I89067
tp80
g0
(g9
g2
Ntp81
Rp82
(dp83
g13
I01
sg14
F2.3899936626151663
sg15
g80
sbs(I-6
I2
tp84
g0
(g9
g2
Ntp85
Rp86
(dp87
g13
I01
sg14
F11.500849845394772
sg15
g84
sbs(I93787
I89067
tp88
g0
(g9
g2
Ntp89
Rp90
(dp91
g13
I01
sg14
F-1.6614398222288258
sg15
g88
sbs(I-13
I0
tp92
g0
(g9
g2
Ntp93
Rp94
(dp95
g13
I01
sg14
F-1.8158171994263657
sg15
g92
sbs(I-8
I0
tp96
g0
(g9
g2
Ntp97
Rp98
(dp99
g13
I01
sg14
F23.337003805424324
sg15
g96
sbssS'nodes'
p100
(dp101
I0
g0
(cneat.genes
DefaultNodeGene
p102
g2
Ntp103
Rp104
(dp105
S'activation'
p106
S'sigmoid'
p107
sS'bias'
p108
F0.9888771807036394
sS'response'
p109
F1.0
sg15
I0
sS'aggregation'
p110
S'sum'
p111
sbsI1
g0
(g102
g2
Ntp112
Rp113
(dp114
g106
g107
sg108
F-2.9971889701265617
sg109
F1.0
sg15
I1
sg110
g111
sbsI2
g0
(g102
g2
Ntp115
Rp116
(dp117
g106
g107
sg108
F-5.4526747620901475
sg109
F1.0
sg15
I2
sg110
g111
sbsI3
g0
(g102
g2
Ntp118
Rp119
(dp120
g106
g107
sg108
F1.8710729200966973
sg109
F1.0
sg15
I3
sg110
g111
sbsI92677
g0
(g102
g2
Ntp121
Rp122
(dp123
g106
g107
sg108
F0.45974692347713597
sg109
F1.0
sg15
I92677
sg110
g111
sbsI91463
g0
(g102
g2
Ntp124
Rp125
(dp126
g106
g107
sg108
F1.6659296187389978
sg109
F1.0
sg15
I91463
sg110
g111
sbsI92874
g0
(g102
g2
Ntp127
Rp128
(dp129
g106
g107
sg108
F-1.5326729221783202
sg109
F1.0
sg15
I92874
sg110
g111
sbsI89067
g0
(g102
g2
Ntp130
Rp131
(dp132
g106
g107
sg108
F-0.21055440044786075
sg109
F1.0
sg15
I89067
sg110
g111
sbsI91981
g0
(g102
g2
Ntp133
Rp134
(dp135
g106
g107
sg108
F-2.578955067600293
sg109
F1.0
sg15
I91981
sg110
g111
sbsI93684
g0
(g102
g2
Ntp136
Rp137
(dp138
g106
g107
sg108
F-2.2501904820362353
sg109
F1.0
sg15
I93684
sg110
g111
sbsI81942
g0
(g102
g2
Ntp139
Rp140
(dp141
g106
g107
sg108
F2.426563197360429
sg109
F1.0
sg15
I81942
sg110
g111
sbsI93787
g0
(g102
g2
Ntp142
Rp143
(dp144
g106
g107
sg108
F0.9986705777349704
sg109
F1.0
sg15
I93787
sg110
g111
sbsI92924
g0
(g102
g2
Ntp145
Rp146
(dp147
g106
g107
sg108
F1.0378707986624436
sg109
F1.0
sg15
I92924
sg110
g111
sbsI93189
g0
(g102
g2
Ntp148
Rp149
(dp150
g106
g107
sg108
F-0.6068050117913762
sg109
F1.0
sg15
I93189
sg110
g111
sbssg15
I462671
sS'fitness'
p151
cnumpy.core.multiarray
scalar
p152
(cnumpy
dtype
p153
(S'f8'
p154
I0
I1
tp155
Rp156
(I3
S'<'
p157
NNNI-1
I-1
I0
tp158
bS'%I\x92$I\x12\x06@'
p159
tp160
Rp161
sb.