ccopy_reg
_reconstructor
p0
(cneat.genome
DefaultGenome
p1
c__builtin__
object
p2
Ntp3
Rp4
(dp5
S'connections'
p6
(dp7
(I3
I84120
tp8
g0
(cneat.genes
DefaultConnectionGene
p9
g2
Ntp10
Rp11
(dp12
S'enabled'
p13
I01
sS'weight'
p14
F-1.636408857246963
sS'key'
p15
g8
sbs(I95139
I84120
tp16
g0
(g9
g2
Ntp17
Rp18
(dp19
g13
I01
sg14
F1.3904850106677837
sg15
g16
sbs(I-3
I93384
tp20
g0
(g9
g2
Ntp21
Rp22
(dp23
g13
I00
sg14
F0.9578252641622076
sg15
g20
sbs(I-6
I0
tp24
g0
(g9
g2
Ntp25
Rp26
(dp27
g13
I01
sg14
F1.3272528197597762
sg15
g24
sbs(I-1
I93384
tp28
g0
(g9
g2
Ntp29
Rp30
(dp31
g13
I00
sg14
F0.5836832208033372
sg15
g28
sbs(I-9
I2
tp32
g0
(g9
g2
Ntp33
Rp34
(dp35
g13
I01
sg14
F3.8305369906073095
sg15
g32
sbs(I1
I94597
tp36
g0
(g9
g2
Ntp37
Rp38
(dp39
g13
I00
sg14
F-0.9165645190282775
sg15
g36
sbs(I-8
I93384
tp40
g0
(g9
g2
Ntp41
Rp42
(dp43
g13
I01
sg14
F2.2924834608220164
sg15
g40
sbs(I2
I95139
tp44
g0
(g9
g2
Ntp45
Rp46
(dp47
g13
I01
sg14
F1.667792654517926
sg15
g44
sbs(I-7
I1
tp48
g0
(g9
g2
Ntp49
Rp50
(dp51
g13
I01
sg14
F11.313661328771618
sg15
g48
sbs(I-9
I1
tp52
g0
(g9
g2
Ntp53
Rp54
(dp55
g13
I01
sg14
F-3.9107120159836715
sg15
g52
sbs(I-5
I93384
tp56
g0
(g9
g2
Ntp57
Rp58
(dp59
g13
I01
sg14
F0.2909355570049394
sg15
g56
sbs(I2
I84120
tp60
g0
(g9
g2
Ntp61
Rp62
(dp63
g13
I00
sg14
F-1.1259657323522054
sg15
g60
sbs(I-7
I3
tp64
g0
(g9
g2
Ntp65
Rp66
(dp67
g13
I01
sg14
F2.1600572581019812
sg15
g64
sbs(I94597
I93384
tp68
g0
(g9
g2
Ntp69
Rp70
(dp71
g13
I00
sg14
F0.4911193584885657
sg15
g68
sbssS'nodes'
p72
(dp73
I0
g0
(cneat.genes
DefaultNodeGene
p74
g2
Ntp75
Rp76
(dp77
S'activation'
p78
S'sigmoid'
p79
sS'bias'
p80
F2.262526336166842
sS'response'
p81
F1.0
sg15
I0
sS'aggregation'
p82
S'sum'
p83
sbsI1
g0
(g74
g2
Ntp84
Rp85
(dp86
g78
g79
sg80
F2.012650401061588
sg81
F1.0
sg15
I1
sg82
g83
sbsI2
g0
(g74
g2
Ntp87
Rp88
(dp89
g78
g79
sg80
F-3.4417175406683436
sg81
F1.0
sg15
I2
sg82
g83
sbsI3
g0
(g74
g2
Ntp90
Rp91
(dp92
g78
g79
sg80
F0.3906300626061211
sg81
F1.0
sg15
I3
sg82
g83
sbsI94597
g0
(g74
g2
Ntp93
Rp94
(dp95
g78
g79
sg80
F2.31819910069144
sg81
F1.0
sg15
I94597
sg82
g83
sbsI93384
g0
(g74
g2
Ntp96
Rp97
(dp98
g78
g79
sg80
F1.1923350800716106
sg81
F1.0
sg15
I93384
sg82
g83
sbsI95139
g0
(g74
g2
Ntp99
Rp100
(dp101
g78
g79
sg80
F-0.29782688219583076
sg81
F1.0
sg15
I95139
sg82
g83
sbsI84120
g0
(g74
g2
Ntp102
Rp103
(dp104
g78
g79
sg80
F-0.8062667291317476
sg81
F1.0
sg15
I84120
sg82
g83
sbssg15
I471219
sS'fitness'
p105
cnumpy.core.multiarray
scalar
p106
(cnumpy
dtype
p107
(S'f8'
p108
I0
I1
tp109
Rp110
(I3
S'<'
p111
NNNI-1
I-1
I0
tp112
bS'\xa8\xe0\xe5\x14\xbc\x9c\xf8?'
p113
tp114
Rp115
sb.