ccopy_reg
_reconstructor
p0
(cneat.genome
DefaultGenome
p1
c__builtin__
object
p2
Ntp3
Rp4
(dp5
S'connections'
p6
(dp7
(I91853
I92886
tp8
g0
(cneat.genes
DefaultConnectionGene
p9
g2
Ntp10
Rp11
(dp12
S'enabled'
p13
I01
sS'weight'
p14
F2.3966241456375976
sS'key'
p15
g8
sbs(I91853
I91617
tp16
g0
(g9
g2
Ntp17
Rp18
(dp19
g13
I00
sg14
F-0.3238921183602208
sg15
g16
sbs(I-5
I91617
tp20
g0
(g9
g2
Ntp21
Rp22
(dp23
g13
I01
sg14
F-0.2989442947686842
sg15
g20
sbs(I-8
I92926
tp24
g0
(g9
g2
Ntp25
Rp26
(dp27
g13
I01
sg14
F1.3656794510101462
sg15
g24
sbs(I-2
I3
tp28
g0
(g9
g2
Ntp29
Rp30
(dp31
g13
I01
sg14
F1.0876913510838346
sg15
g28
sbs(I-11
I91617
tp32
g0
(g9
g2
Ntp33
Rp34
(dp35
g13
I00
sg14
F-0.24437350812221875
sg15
g32
sbs(I92926
I2
tp36
g0
(g9
g2
Ntp37
Rp38
(dp39
g13
I01
sg14
F1.0709855844906917
sg15
g36
sbs(I92238
I91853
tp40
g0
(g9
g2
Ntp41
Rp42
(dp43
g13
I01
sg14
F1.4209555792207857
sg15
g40
sbs(I-1
I92886
tp44
g0
(g9
g2
Ntp45
Rp46
(dp47
g13
I01
sg14
F-0.3000384432718737
sg15
g44
sbs(I1
I90642
tp48
g0
(g9
g2
Ntp49
Rp50
(dp51
g13
I01
sg14
F0.2584995046373255
sg15
g48
sbs(I-9
I92238
tp52
g0
(g9
g2
Ntp53
Rp54
(dp55
g13
I01
sg14
F-1.0511710423280383
sg15
g52
sbs(I-8
I2
tp56
g0
(g9
g2
Ntp57
Rp58
(dp59
g13
I01
sg14
F-4.6341746061552564
sg15
g56
sbs(I-5
I3
tp60
g0
(g9
g2
Ntp61
Rp62
(dp63
g13
I01
sg14
F10.468063417629255
sg15
g60
sbs(I-9
I1
tp64
g0
(g9
g2
Ntp65
Rp66
(dp67
g13
I01
sg14
F-7.630775689335191
sg15
g64
sbs(I92886
I91617
tp68
g0
(g9
g2
Ntp69
Rp70
(dp71
g13
I01
sg14
F-0.6393464646445548
sg15
g68
sbs(I-8
I0
tp72
g0
(g9
g2
Ntp73
Rp74
(dp75
g13
I01
sg14
F9.893331445733244
sg15
g72
sbs(I-11
I90642
tp76
g0
(g9
g2
Ntp77
Rp78
(dp79
g13
I01
sg14
F0.8210928450776128
sg15
g76
sbs(I-11
I91853
tp80
g0
(g9
g2
Ntp81
Rp82
(dp83
g13
I01
sg14
F1.53739930501883
sg15
g80
sbs(I-5
I91853
tp84
g0
(g9
g2
Ntp85
Rp86
(dp87
g13
I01
sg14
F0.4103336411447213
sg15
g84
sbssS'nodes'
p88
(dp89
I0
g0
(cneat.genes
DefaultNodeGene
p90
g2
Ntp91
Rp92
(dp93
S'activation'
p94
S'sigmoid'
p95
sS'bias'
p96
F1.313309327022297
sS'response'
p97
F1.0
sg15
I0
sS'aggregation'
p98
S'sum'
p99
sbsI1
g0
(g90
g2
Ntp100
Rp101
(dp102
g94
g95
sg96
F13.101459945948365
sg97
F1.0
sg15
I1
sg98
g99
sbsI2
g0
(g90
g2
Ntp103
Rp104
(dp105
g94
g95
sg96
F1.88666442459797
sg97
F1.0
sg15
I2
sg98
g99
sbsI3
g0
(g90
g2
Ntp106
Rp107
(dp108
g94
g95
sg96
F-1.4160320973336256
sg97
F1.0
sg15
I3
sg98
g99
sbsI91617
g0
(g90
g2
Ntp109
Rp110
(dp111
g94
g95
sg96
F-2.3172447019196554
sg97
F1.0
sg15
I91617
sg98
g99
sbsI91853
g0
(g90
g2
Ntp112
Rp113
(dp114
g94
g95
sg96
F-0.8804247642242256
sg97
F1.0
sg15
I91853
sg98
g99
sbsI92238
g0
(g90
g2
Ntp115
Rp116
(dp117
g94
g95
sg96
F0.8458201318415559
sg97
F1.0
sg15
I92238
sg98
g99
sbsI90642
g0
(g90
g2
Ntp118
Rp119
(dp120
g94
g95
sg96
F1.193879622585846
sg97
F1.0
sg15
I90642
sg98
g99
sbsI92886
g0
(g90
g2
Ntp121
Rp122
(dp123
g94
g95
sg96
F-0.6019179362214239
sg97
F1.0
sg15
I92886
sg98
g99
sbsI92926
g0
(g90
g2
Ntp124
Rp125
(dp126
g94
g95
sg96
F0.21563653665907304
sg97
F1.0
sg15
I92926
sg98
g99
sbssg15
I461086
sS'fitness'
p127
cnumpy.core.multiarray
scalar
p128
(cnumpy
dtype
p129
(S'f8'
p130
I0
I1
tp131
Rp132
(I3
S'<'
p133
NNNI-1
I-1
I0
tp134
bS'\x06/\xa7\xe0\xe5\x14\x0c@'
p135
tp136
Rp137
sb.