ccopy_reg
_reconstructor
p0
(cneat.genome
DefaultGenome
p1
c__builtin__
object
p2
Ntp3
Rp4
(dp5
S'connections'
p6
(dp7
(I-5
I58143
tp8
g0
(cneat.genes
DefaultConnectionGene
p9
g2
Ntp10
Rp11
(dp12
S'enabled'
p13
I01
sS'weight'
p14
F17.34167638568047
sS'key'
p15
g8
sbs(I-4
I2
tp16
g0
(g9
g2
Ntp17
Rp18
(dp19
g13
I01
sg14
F-1.4736648195038773
sg15
g16
sbs(I-1
I2
tp20
g0
(g9
g2
Ntp21
Rp22
(dp23
g13
I01
sg14
F1.620270833509151
sg15
g20
sbs(I-8
I89242
tp24
g0
(g9
g2
Ntp25
Rp26
(dp27
g13
I00
sg14
F-0.4846314768317994
sg15
g24
sbs(I-9
I3
tp28
g0
(g9
g2
Ntp29
Rp30
(dp31
g13
I01
sg14
F-1.6675210062301833
sg15
g28
sbs(I2
I88236
tp32
g0
(g9
g2
Ntp33
Rp34
(dp35
g13
I01
sg14
F-0.2506932693893939
sg15
g32
sbs(I-9
I1
tp36
g0
(g9
g2
Ntp37
Rp38
(dp39
g13
I01
sg14
F-11.644858436676005
sg15
g36
sbs(I58143
I3
tp40
g0
(g9
g2
Ntp41
Rp42
(dp43
g13
I01
sg14
F27.357664610279254
sg15
g40
sbs(I-5
I91042
tp44
g0
(g9
g2
Ntp45
Rp46
(dp47
g13
I01
sg14
F-0.35668134912164773
sg15
g44
sbs(I-8
I0
tp48
g0
(g9
g2
Ntp49
Rp50
(dp51
g13
I01
sg14
F9.463475382802269
sg15
g48
sbssS'nodes'
p52
(dp53
I0
g0
(cneat.genes
DefaultNodeGene
p54
g2
Ntp55
Rp56
(dp57
S'activation'
p58
S'sigmoid'
p59
sS'bias'
p60
F-2.062581680752582
sS'response'
p61
F1.0
sg15
I0
sS'aggregation'
p62
S'sum'
p63
sbsI1
g0
(g54
g2
Ntp64
Rp65
(dp66
g58
g59
sg60
F15.539551373138835
sg61
F1.0
sg15
I1
sg62
g63
sbsI2
g0
(g54
g2
Ntp67
Rp68
(dp69
g58
g59
sg60
F1.3381932778445644
sg61
F1.0
sg15
I2
sg62
g63
sbsI3
g0
(g54
g2
Ntp70
Rp71
(dp72
g58
g59
sg60
F-0.4397934643455506
sg61
F1.0
sg15
I3
sg62
g63
sbsI88236
g0
(g54
g2
Ntp73
Rp74
(dp75
g58
g59
sg60
F-2.280583775627058
sg61
F1.0
sg15
I88236
sg62
g63
sbsI89426
g0
(g54
g2
Ntp76
Rp77
(dp78
g58
g59
sg60
F0.48826420432114565
sg61
F1.0
sg15
I89426
sg62
g63
sbsI90514
g0
(g54
g2
Ntp79
Rp80
(dp81
g58
g59
sg60
F-1.5141112370249168
sg61
F1.0
sg15
I90514
sg62
g63
sbsI89242
g0
(g54
g2
Ntp82
Rp83
(dp84
g58
g59
sg60
F0.10780853405628263
sg61
F1.0
sg15
I89242
sg62
g63
sbsI58143
g0
(g54
g2
Ntp85
Rp86
(dp87
g58
g59
sg60
F-2.897501554270577
sg61
F1.0
sg15
I58143
sg62
g63
sbsI91042
g0
(g54
g2
Ntp88
Rp89
(dp90
g58
g59
sg60
F-0.14005028838861977
sg61
F1.0
sg15
I91042
sg62
g63
sbssg15
I453714
sS'fitness'
p91
cnumpy.core.multiarray
scalar
p92
(cnumpy
dtype
p93
(S'f8'
p94
I0
I1
tp95
Rp96
(I3
S'<'
p97
NNNI-1
I-1
I0
tp98
bS'\x83\x97S\xf0r\n\x0e@'
p99
tp100
Rp101
sb.