ccopy_reg
_reconstructor
p0
(cneat.genome
DefaultGenome
p1
c__builtin__
object
p2
Ntp3
Rp4
(dp5
S'connections'
p6
(dp7
(I91410
I0
tp8
g0
(cneat.genes
DefaultConnectionGene
p9
g2
Ntp10
Rp11
(dp12
S'enabled'
p13
I01
sS'weight'
p14
F-0.029139933840320303
sS'key'
p15
g8
sbs(I91410
I91195
tp16
g0
(g9
g2
Ntp17
Rp18
(dp19
g13
I01
sg14
F1.3418515198831338
sg15
g16
sbs(I-9
I2
tp20
g0
(g9
g2
Ntp21
Rp22
(dp23
g13
I01
sg14
F6.487541083970234
sg15
g20
sbs(I2
I91195
tp24
g0
(g9
g2
Ntp25
Rp26
(dp27
g13
I01
sg14
F-1.455243811022313
sg15
g24
sbs(I-3
I91195
tp28
g0
(g9
g2
Ntp29
Rp30
(dp31
g13
I00
sg14
F-2.7854709268858353
sg15
g28
sbs(I92017
I93094
tp32
g0
(g9
g2
Ntp33
Rp34
(dp35
g13
I01
sg14
F1.765512995228753
sg15
g32
sbs(I-10
I91045
tp36
g0
(g9
g2
Ntp37
Rp38
(dp39
g13
I00
sg14
F0.32752701935403306
sg15
g36
sbs(I-1
I92017
tp40
g0
(g9
g2
Ntp41
Rp42
(dp43
g13
I01
sg14
F-0.16913174338968628
sg15
g40
sbs(I92278
I92775
tp44
g0
(g9
g2
Ntp45
Rp46
(dp47
g13
I01
sg14
F0.8569401699077551
sg15
g44
sbs(I0
I92017
tp48
g0
(g9
g2
Ntp49
Rp50
(dp51
g13
I01
sg14
F3.8186625733454456
sg15
g48
sbs(I-4
I91410
tp52
g0
(g9
g2
Ntp53
Rp54
(dp55
g13
I01
sg14
F-0.5087770403110715
sg15
g52
sbs(I92278
I91195
tp56
g0
(g9
g2
Ntp57
Rp58
(dp59
g13
I00
sg14
F2.3027820899176854
sg15
g56
sbs(I-3
I92278
tp60
g0
(g9
g2
Ntp61
Rp62
(dp63
g13
I01
sg14
F2.673563672009527
sg15
g60
sbs(I-7
I1
tp64
g0
(g9
g2
Ntp65
Rp66
(dp67
g13
I01
sg14
F8.953423278695496
sg15
g64
sbs(I-5
I2
tp68
g0
(g9
g2
Ntp69
Rp70
(dp71
g13
I01
sg14
F-1.1462646985809388
sg15
g68
sbssS'nodes'
p72
(dp73
I0
g0
(cneat.genes
DefaultNodeGene
p74
g2
Ntp75
Rp76
(dp77
S'activation'
p78
S'sigmoid'
p79
sS'bias'
p80
F-1.6523687261155473
sS'response'
p81
F1.0
sg15
I0
sS'aggregation'
p82
S'sum'
p83
sbsI1
g0
(g74
g2
Ntp84
Rp85
(dp86
g78
g79
sg80
F-8.696847654312922
sg81
F1.0
sg15
I1
sg82
g83
sbsI2
g0
(g74
g2
Ntp87
Rp88
(dp89
g78
g79
sg80
F-14.602269110944253
sg81
F1.0
sg15
I2
sg82
g83
sbsI3
g0
(g74
g2
Ntp90
Rp91
(dp92
g78
g79
sg80
F-4.624407928487921
sg81
F1.0
sg15
I3
sg82
g83
sbsI91045
g0
(g74
g2
Ntp93
Rp94
(dp95
g78
g79
sg80
F-3.107578089576444
sg81
F1.0
sg15
I91045
sg82
g83
sbsI93094
g0
(g74
g2
Ntp96
Rp97
(dp98
g78
g79
sg80
F1.1273075783136335
sg81
F1.0
sg15
I93094
sg82
g83
sbsI92775
g0
(g74
g2
Ntp99
Rp100
(dp101
g78
g79
sg80
F2.2709027081654316
sg81
F1.0
sg15
I92775
sg82
g83
sbsI90306
g0
(g74
g2
Ntp102
Rp103
(dp104
g78
g79
sg80
F1.8674741019836536
sg81
F1.0
sg15
I90306
sg82
g83
sbsI89263
g0
(g74
g2
Ntp105
Rp106
(dp107
g78
g79
sg80
F-0.36475949873569957
sg81
F1.0
sg15
I89263
sg82
g83
sbsI92017
g0
(g74
g2
Ntp108
Rp109
(dp110
g78
g79
sg80
F-1.1049080799511546
sg81
F1.0
sg15
I92017
sg82
g83
sbsI91410
g0
(g74
g2
Ntp111
Rp112
(dp113
g78
g79
sg80
F-0.35343708324702294
sg81
F1.0
sg15
I91410
sg82
g83
sbsI92278
g0
(g74
g2
Ntp114
Rp115
(dp116
g78
g79
sg80
F-0.035636912575149005
sg81
F1.0
sg15
I92278
sg82
g83
sbsI89209
g0
(g74
g2
Ntp117
Rp118
(dp119
g78
g79
sg80
F-0.04252483367457721
sg81
F1.0
sg15
I89209
sg82
g83
sbsI91802
g0
(g74
g2
Ntp120
Rp121
(dp122
g78
g79
sg80
F0.15305105980197642
sg81
F1.0
sg15
I91802
sg82
g83
sbsI91195
g0
(g74
g2
Ntp123
Rp124
(dp125
g78
g79
sg80
F-1.692208253083666
sg81
F1.0
sg15
I91195
sg82
g83
sbssg15
I461701
sS'fitness'
p126
cnumpy.core.multiarray
scalar
p127
(cnumpy
dtype
p128
(S'f8'
p129
I0
I1
tp130
Rp131
(I3
S'<'
p132
NNNI-1
I-1
I0
tp133
bS'y9\x05/\xa7\xe0\xf8?'
p134
tp135
Rp136
sb.