ccopy_reg
_reconstructor
p0
(cneat.genome
DefaultGenome
p1
c__builtin__
object
p2
Ntp3
Rp4
(dp5
S'connections'
p6
(dp7
(I-5
I0
tp8
g0
(cneat.genes
DefaultConnectionGene
p9
g2
Ntp10
Rp11
(dp12
S'enabled'
p13
I00
sS'weight'
p14
F-2.3400677559874303
sS'key'
p15
g8
sbs(I-9
I1
tp16
g0
(g9
g2
Ntp17
Rp18
(dp19
g13
I01
sg14
F-9.782301036975364
sg15
g16
sbs(I0
I90327
tp20
g0
(g9
g2
Ntp21
Rp22
(dp23
g13
I01
sg14
F-1.1936875779864446
sg15
g20
sbs(I-11
I0
tp24
g0
(g9
g2
Ntp25
Rp26
(dp27
g13
I01
sg14
F-14.00275057632515
sg15
g24
sbs(I89511
I90691
tp28
g0
(g9
g2
Ntp29
Rp30
(dp31
g13
I01
sg14
F0.97758304275266
sg15
g28
sbs(I90691
I0
tp32
g0
(g9
g2
Ntp33
Rp34
(dp35
g13
I01
sg14
F-0.18905543761072152
sg15
g32
sbs(I-6
I0
tp36
g0
(g9
g2
Ntp37
Rp38
(dp39
g13
I01
sg14
F-1.860911047676101
sg15
g36
sbs(I-2
I90691
tp40
g0
(g9
g2
Ntp41
Rp42
(dp43
g13
I01
sg14
F0.3982043822241792
sg15
g40
sbs(I-11
I3
tp44
g0
(g9
g2
Ntp45
Rp46
(dp47
g13
I01
sg14
F-13.41796481234195
sg15
g44
sbs(I-5
I89511
tp48
g0
(g9
g2
Ntp49
Rp50
(dp51
g13
I01
sg14
F0.1247777360911374
sg15
g48
sbs(I-3
I90327
tp52
g0
(g9
g2
Ntp53
Rp54
(dp55
g13
I01
sg14
F-2.010694863925946
sg15
g52
sbs(I-8
I2
tp56
g0
(g9
g2
Ntp57
Rp58
(dp59
g13
I01
sg14
F-7.028566248333677
sg15
g56
sbs(I-3
I3
tp60
g0
(g9
g2
Ntp61
Rp62
(dp63
g13
I00
sg14
F0.3084766803402449
sg15
g60
sbs(I-13
I0
tp64
g0
(g9
g2
Ntp65
Rp66
(dp67
g13
I01
sg14
F6.076295435959173
sg15
g64
sbs(I-5
I90573
tp68
g0
(g9
g2
Ntp69
Rp70
(dp71
g13
I01
sg14
F2.727084735120736
sg15
g68
sbs(I-10
I0
tp72
g0
(g9
g2
Ntp73
Rp74
(dp75
g13
I01
sg14
F-20.921404891119934
sg15
g72
sbs(I90573
I0
tp76
g0
(g9
g2
Ntp77
Rp78
(dp79
g13
I01
sg14
F-0.5540262369284112
sg15
g76
sbs(I-13
I3
tp80
g0
(g9
g2
Ntp81
Rp82
(dp83
g13
I01
sg14
F0.5508412948435761
sg15
g80
sbssS'nodes'
p84
(dp85
I0
g0
(cneat.genes
DefaultNodeGene
p86
g2
Ntp87
Rp88
(dp89
S'activation'
p90
S'sigmoid'
p91
sS'bias'
p92
F-1.5290520136932368
sS'response'
p93
F1.0
sg15
I0
sS'aggregation'
p94
S'sum'
p95
sbsI1
g0
(g86
g2
Ntp96
Rp97
(dp98
g90
g91
sg92
F-0.05558945168945573
sg93
F1.0
sg15
I1
sg94
g95
sbsI2
g0
(g86
g2
Ntp99
Rp100
(dp101
g90
g91
sg92
F-10.803530801791883
sg93
F1.0
sg15
I2
sg94
g95
sbsI3
g0
(g86
g2
Ntp102
Rp103
(dp104
g90
g91
sg92
F7.048413422827294
sg93
F1.0
sg15
I3
sg94
g95
sbsI89511
g0
(g86
g2
Ntp105
Rp106
(dp107
g90
g91
sg92
F1.313331374626736
sg93
F1.0
sg15
I89511
sg94
g95
sbsI90573
g0
(g86
g2
Ntp108
Rp109
(dp110
g90
g91
sg92
F-1.8190154168062986
sg93
F1.0
sg15
I90573
sg94
g95
sbsI90691
g0
(g86
g2
Ntp111
Rp112
(dp113
g90
g91
sg92
F1.1654776742532904
sg93
F1.0
sg15
I90691
sg94
g95
sbsI90327
g0
(g86
g2
Ntp114
Rp115
(dp116
g90
g91
sg92
F-0.28153368395092826
sg93
F1.0
sg15
I90327
sg94
g95
sbssg15
I454962
sS'fitness'
p117
cnumpy.core.multiarray
scalar
p118
(cnumpy
dtype
p119
(S'f8'
p120
I0
I1
tp121
Rp122
(I3
S'<'
p123
NNNI-1
I-1
I0
tp124
bS'c}h\xac\x0f\xcd;@'
p125
tp126
Rp127
sb.