ccopy_reg
_reconstructor
p0
(cneat.genome
DefaultGenome
p1
c__builtin__
object
p2
Ntp3
Rp4
(dp5
S'connections'
p6
(dp7
(I-4
I92549
tp8
g0
(cneat.genes
DefaultConnectionGene
p9
g2
Ntp10
Rp11
(dp12
S'enabled'
p13
I01
sS'weight'
p14
F0.3614146665859707
sS'key'
p15
g8
sbs(I-6
I90039
tp16
g0
(g9
g2
Ntp17
Rp18
(dp19
g13
I01
sg14
F2.2227657348270586
sg15
g16
sbs(I92780
I89215
tp20
g0
(g9
g2
Ntp21
Rp22
(dp23
g13
I01
sg14
F-2.309168346448019
sg15
g20
sbs(I-3
I90039
tp24
g0
(g9
g2
Ntp25
Rp26
(dp27
g13
I01
sg14
F-0.6666592943973721
sg15
g24
sbs(I89641
I89215
tp28
g0
(g9
g2
Ntp29
Rp30
(dp31
g13
I00
sg14
F-2.8488136972786644
sg15
g28
sbs(I-5
I89215
tp32
g0
(g9
g2
Ntp33
Rp34
(dp35
g13
I01
sg14
F0.5196075422170902
sg15
g32
sbs(I91172
I89215
tp36
g0
(g9
g2
Ntp37
Rp38
(dp39
g13
I01
sg14
F1.7633470310816006
sg15
g36
sbs(I92549
I93463
tp40
g0
(g9
g2
Ntp41
Rp42
(dp43
g13
I01
sg14
F0.7610063334517716
sg15
g40
sbs(I-1
I1
tp44
g0
(g9
g2
Ntp45
Rp46
(dp47
g13
I01
sg14
F0.911738626328976
sg15
g44
sbs(I-11
I0
tp48
g0
(g9
g2
Ntp49
Rp50
(dp51
g13
I01
sg14
F-5.367758063176988
sg15
g48
sbs(I-3
I2
tp52
g0
(g9
g2
Ntp53
Rp54
(dp55
g13
I00
sg14
F-0.950228136047709
sg15
g52
sbs(I-7
I91841
tp56
g0
(g9
g2
Ntp57
Rp58
(dp59
g13
I01
sg14
F1.233286883689428
sg15
g56
sbs(I-9
I1
tp60
g0
(g9
g2
Ntp61
Rp62
(dp63
g13
I01
sg14
F-10.900570606002702
sg15
g60
sbs(I-10
I0
tp64
g0
(g9
g2
Ntp65
Rp66
(dp67
g13
I01
sg14
F-21.128913181128034
sg15
g64
sbs(I-8
I2
tp68
g0
(g9
g2
Ntp69
Rp70
(dp71
g13
I01
sg14
F-6.28465001787292
sg15
g68
sbs(I93463
I91734
tp72
g0
(g9
g2
Ntp73
Rp74
(dp75
g13
I01
sg14
F-0.14057976260426264
sg15
g72
sbs(I-13
I91172
tp76
g0
(g9
g2
Ntp77
Rp78
(dp79
g13
I01
sg14
F-1.8221416637251728
sg15
g76
sbs(I-11
I3
tp80
g0
(g9
g2
Ntp81
Rp82
(dp83
g13
I01
sg14
F-16.687673403859588
sg15
g80
sbs(I-13
I0
tp84
g0
(g9
g2
Ntp85
Rp86
(dp87
g13
I01
sg14
F5.014164528879304
sg15
g84
sbs(I-13
I89215
tp88
g0
(g9
g2
Ntp89
Rp90
(dp91
g13
I00
sg14
F-0.39948015488143923
sg15
g88
sbs(I91841
I91734
tp92
g0
(g9
g2
Ntp93
Rp94
(dp95
g13
I00
sg14
F0.16978825429872083
sg15
g92
sbs(I-12
I91734
tp96
g0
(g9
g2
Ntp97
Rp98
(dp99
g13
I01
sg14
F1.9460700507768072
sg15
g96
sbs(I91841
I92549
tp100
g0
(g9
g2
Ntp101
Rp102
(dp103
g13
I01
sg14
F2.377950517925818
sg15
g100
sbs(I91172
I91734
tp104
g0
(g9
g2
Ntp105
Rp106
(dp107
g13
I01
sg14
F-0.030126758163022904
sg15
g104
sbs(I92549
I91734
tp108
g0
(g9
g2
Ntp109
Rp110
(dp111
g13
I00
sg14
F3.167752373091609
sg15
g108
sbs(I-12
I91172
tp112
g0
(g9
g2
Ntp113
Rp114
(dp115
g13
I01
sg14
F2.0599252444425273
sg15
g112
sbs(I91926
I89215
tp116
g0
(g9
g2
Ntp117
Rp118
(dp119
g13
I01
sg14
F2.227163291121431
sg15
g116
sbssS'nodes'
p120
(dp121
I0
g0
(cneat.genes
DefaultNodeGene
p122
g2
Ntp123
Rp124
(dp125
S'activation'
p126
S'sigmoid'
p127
sS'bias'
p128
F0.9047295116481382
sS'response'
p129
F1.0
sg15
I0
sS'aggregation'
p130
S'sum'
p131
sbsI1
g0
(g122
g2
Ntp132
Rp133
(dp134
g126
g127
sg128
F0.272276151574894
sg129
F1.0
sg15
I1
sg130
g131
sbsI2
g0
(g122
g2
Ntp135
Rp136
(dp137
g126
g127
sg128
F-11.031821291432184
sg129
F1.0
sg15
I2
sg130
g131
sbsI3
g0
(g122
g2
Ntp138
Rp139
(dp140
g126
g127
sg128
F10.033250625529986
sg129
F1.0
sg15
I3
sg130
g131
sbsI91172
g0
(g122
g2
Ntp141
Rp142
(dp143
g126
g127
sg128
F0.5699184459690111
sg129
F1.0
sg15
I91172
sg130
g131
sbsI92549
g0
(g122
g2
Ntp144
Rp145
(dp146
g126
g127
sg128
F-0.9620987858880113
sg129
F1.0
sg15
I92549
sg130
g131
sbsI91841
g0
(g122
g2
Ntp147
Rp148
(dp149
g126
g127
sg128
F0.8021191738923991
sg129
F1.0
sg15
I91841
sg130
g131
sbsI89641
g0
(g122
g2
Ntp150
Rp151
(dp152
g126
g127
sg128
F1.3532226614711322
sg129
F1.0
sg15
I89641
sg130
g131
sbsI93463
g0
(g122
g2
Ntp153
Rp154
(dp155
g126
g127
sg128
F-0.16440013854388763
sg129
F1.0
sg15
I93463
sg130
g131
sbsI92780
g0
(g122
g2
Ntp156
Rp157
(dp158
g126
g127
sg128
F-1.1006077676398038
sg129
F1.0
sg15
I92780
sg130
g131
sbsI91926
g0
(g122
g2
Ntp159
Rp160
(dp161
g126
g127
sg128
F-0.6217138445838746
sg129
F1.0
sg15
I91926
sg130
g131
sbsI91734
g0
(g122
g2
Ntp162
Rp163
(dp164
g126
g127
sg128
F0.8038326540396739
sg129
F1.0
sg15
I91734
sg130
g131
sbsI90039
g0
(g122
g2
Ntp165
Rp166
(dp167
g126
g127
sg128
F-0.43769587292814827
sg129
F1.0
sg15
I90039
sg130
g131
sbsI89215
g0
(g122
g2
Ntp168
Rp169
(dp170
g126
g127
sg128
F-2.542591190876993
sg129
F1.0
sg15
I89215
sg130
g131
sbssg15
I461566
sS'fitness'
p171
cnumpy.core.multiarray
scalar
p172
(cnumpy
dtype
p173
(S'f8'
p174
I0
I1
tp175
Rp176
(I3
S'<'
p177
NNNI-1
I-1
I0
tp178
bS'\xb7m\xdb\xb6mK;@'
p179
tp180
Rp181
sb.