ccopy_reg
_reconstructor
p0
(cneat.genome
DefaultGenome
p1
c__builtin__
object
p2
Ntp3
Rp4
(dp5
S'connections'
p6
(dp7
(I-12
I91255
tp8
g0
(cneat.genes
DefaultConnectionGene
p9
g2
Ntp10
Rp11
(dp12
S'enabled'
p13
I01
sS'weight'
p14
F-1.4953956320159052
sS'key'
p15
g8
sbs(I91377
I90662
tp16
g0
(g9
g2
Ntp17
Rp18
(dp19
g13
I01
sg14
F2.250294756567623
sg15
g16
sbs(I1
I91449
tp20
g0
(g9
g2
Ntp21
Rp22
(dp23
g13
I01
sg14
F-3.3167230259944214
sg15
g20
sbs(I-12
I3
tp24
g0
(g9
g2
Ntp25
Rp26
(dp27
g13
I00
sg14
F-2.149149557414391
sg15
g24
sbs(I91449
I91255
tp28
g0
(g9
g2
Ntp29
Rp30
(dp31
g13
I00
sg14
F0.563002182169378
sg15
g28
sbs(I3
I92387
tp32
g0
(g9
g2
Ntp33
Rp34
(dp35
g13
I01
sg14
F1.308234856290825
sg15
g32
sbs(I91449
I90662
tp36
g0
(g9
g2
Ntp37
Rp38
(dp39
g13
I01
sg14
F-0.1260717858482775
sg15
g36
sbs(I91377
I1
tp40
g0
(g9
g2
Ntp41
Rp42
(dp43
g13
I00
sg14
F1.8574218585454763
sg15
g40
sbs(I-9
I2
tp44
g0
(g9
g2
Ntp45
Rp46
(dp47
g13
I01
sg14
F13.379586468962703
sg15
g44
sbs(I-12
I0
tp48
g0
(g9
g2
Ntp49
Rp50
(dp51
g13
I00
sg14
F2.1824711169841193
sg15
g48
sbs(I91449
I93431
tp52
g0
(g9
g2
Ntp53
Rp54
(dp55
g13
I01
sg14
F-0.4410496812914035
sg15
g52
sbs(I90662
I91255
tp56
g0
(g9
g2
Ntp57
Rp58
(dp59
g13
I01
sg14
F-1.9932588253992054
sg15
g56
sbs(I-7
I1
tp60
g0
(g9
g2
Ntp61
Rp62
(dp63
g13
I01
sg14
F18.074321133191564
sg15
g60
sbs(I-7
I92908
tp64
g0
(g9
g2
Ntp65
Rp66
(dp67
g13
I01
sg14
F0.7473264139093675
sg15
g64
sbs(I91255
I0
tp68
g0
(g9
g2
Ntp69
Rp70
(dp71
g13
I01
sg14
F0.36339735034659787
sg15
g68
sbs(I-4
I92387
tp72
g0
(g9
g2
Ntp73
Rp74
(dp75
g13
I01
sg14
F0.9116626178466819
sg15
g72
sbs(I93431
I91255
tp76
g0
(g9
g2
Ntp77
Rp78
(dp79
g13
I01
sg14
F-0.3081989624932016
sg15
g76
sbs(I-12
I91377
tp80
g0
(g9
g2
Ntp81
Rp82
(dp83
g13
I01
sg14
F0.3607367512627429
sg15
g80
sbs(I-13
I92387
tp84
g0
(g9
g2
Ntp85
Rp86
(dp87
g13
I01
sg14
F-4.7493768528067895
sg15
g84
sbssS'nodes'
p88
(dp89
I0
g0
(cneat.genes
DefaultNodeGene
p90
g2
Ntp91
Rp92
(dp93
S'activation'
p94
S'sigmoid'
p95
sS'bias'
p96
F0.14074761902068555
sS'response'
p97
F1.0
sg15
I0
sS'aggregation'
p98
S'sum'
p99
sbsI1
g0
(g90
g2
Ntp100
Rp101
(dp102
g94
g95
sg96
F-11.692600497209316
sg97
F1.0
sg15
I1
sg98
g99
sbsI2
g0
(g90
g2
Ntp103
Rp104
(dp105
g94
g95
sg96
F-25.722616513568497
sg97
F1.0
sg15
I2
sg98
g99
sbsI3
g0
(g90
g2
Ntp106
Rp107
(dp108
g94
g95
sg96
F-2.5255853362123415
sg97
F1.0
sg15
I3
sg98
g99
sbsI90662
g0
(g90
g2
Ntp109
Rp110
(dp111
g94
g95
sg96
F1.3073666724645332
sg97
F1.0
sg15
I90662
sg98
g99
sbsI91255
g0
(g90
g2
Ntp112
Rp113
(dp114
g94
g95
sg96
F1.2743378952354654
sg97
F1.0
sg15
I91255
sg98
g99
sbsI92908
g0
(g90
g2
Ntp115
Rp116
(dp117
g94
g95
sg96
F-0.3600214429978936
sg97
F1.0
sg15
I92908
sg98
g99
sbsI91377
g0
(g90
g2
Ntp118
Rp119
(dp120
g94
g95
sg96
F-0.16094958256160796
sg97
F1.0
sg15
I91377
sg98
g99
sbsI92387
g0
(g90
g2
Ntp121
Rp122
(dp123
g94
g95
sg96
F-1.674278876961031
sg97
F1.0
sg15
I92387
sg98
g99
sbsI93431
g0
(g90
g2
Ntp124
Rp125
(dp126
g94
g95
sg96
F-0.398658830886475
sg97
F1.0
sg15
I93431
sg98
g99
sbsI91449
g0
(g90
g2
Ntp127
Rp128
(dp129
g94
g95
sg96
F-0.30574234381546306
sg97
F1.0
sg15
I91449
sg98
g99
sbssg15
I465502
sS'fitness'
p130
cnumpy.core.multiarray
scalar
p131
(cnumpy
dtype
p132
(S'f8'
p133
I0
I1
tp134
Rp135
(I3
S'<'
p136
NNNI-1
I-1
I0
tp137
bS'y9\x05/\xa7\xe0\xf8?'
p138
tp139
Rp140
sb.